ARM GAS  C:\Users\ben96\AppData\Local\Temp\ccIzE967.s 			page 1


   1              		.cpu cortex-m3
   2              		.eabi_attribute 20, 1
   3              		.eabi_attribute 21, 1
   4              		.eabi_attribute 23, 3
   5              		.eabi_attribute 24, 1
   6              		.eabi_attribute 25, 1
   7              		.eabi_attribute 26, 1
   8              		.eabi_attribute 30, 6
   9              		.eabi_attribute 34, 1
  10              		.eabi_attribute 18, 4
  11              		.file	"stm32f1xx_hal_exti.c"
  12              		.text
  13              	.Ltext0:
  14              		.cfi_sections	.debug_frame
  15              		.section	.text.HAL_EXTI_SetConfigLine,"ax",%progbits
  16              		.align	1
  17              		.global	HAL_EXTI_SetConfigLine
  18              		.arch armv7-m
  19              		.syntax unified
  20              		.thumb
  21              		.thumb_func
  22              		.fpu softvfp
  24              	HAL_EXTI_SetConfigLine:
  25              	.LFB65:
  26              		.file 1 "Drivers/STM32F1xx_HAL_Driver/Src/stm32f1xx_hal_exti.c"
   1:Drivers/STM32F1xx_HAL_Driver/Src/stm32f1xx_hal_exti.c **** /**
   2:Drivers/STM32F1xx_HAL_Driver/Src/stm32f1xx_hal_exti.c ****   ******************************************************************************
   3:Drivers/STM32F1xx_HAL_Driver/Src/stm32f1xx_hal_exti.c ****   * @file    stm32f1xx_hal_exti.c
   4:Drivers/STM32F1xx_HAL_Driver/Src/stm32f1xx_hal_exti.c ****   * @author  MCD Application Team
   5:Drivers/STM32F1xx_HAL_Driver/Src/stm32f1xx_hal_exti.c ****   * @brief   EXTI HAL module driver.
   6:Drivers/STM32F1xx_HAL_Driver/Src/stm32f1xx_hal_exti.c ****   *          This file provides firmware functions to manage the following
   7:Drivers/STM32F1xx_HAL_Driver/Src/stm32f1xx_hal_exti.c ****   *          functionalities of the Extended Interrupts and events controller (EXTI) peripheral:
   8:Drivers/STM32F1xx_HAL_Driver/Src/stm32f1xx_hal_exti.c ****   *           + Initialization and de-initialization functions
   9:Drivers/STM32F1xx_HAL_Driver/Src/stm32f1xx_hal_exti.c ****   *           + IO operation functions
  10:Drivers/STM32F1xx_HAL_Driver/Src/stm32f1xx_hal_exti.c ****   *
  11:Drivers/STM32F1xx_HAL_Driver/Src/stm32f1xx_hal_exti.c ****   @verbatim
  12:Drivers/STM32F1xx_HAL_Driver/Src/stm32f1xx_hal_exti.c ****   ==============================================================================
  13:Drivers/STM32F1xx_HAL_Driver/Src/stm32f1xx_hal_exti.c ****                     ##### EXTI Peripheral features #####
  14:Drivers/STM32F1xx_HAL_Driver/Src/stm32f1xx_hal_exti.c ****   ==============================================================================
  15:Drivers/STM32F1xx_HAL_Driver/Src/stm32f1xx_hal_exti.c ****   [..]
  16:Drivers/STM32F1xx_HAL_Driver/Src/stm32f1xx_hal_exti.c ****     (+) Each Exti line can be configured within this driver.
  17:Drivers/STM32F1xx_HAL_Driver/Src/stm32f1xx_hal_exti.c **** 
  18:Drivers/STM32F1xx_HAL_Driver/Src/stm32f1xx_hal_exti.c ****     (+) Exti line can be configured in 3 different modes
  19:Drivers/STM32F1xx_HAL_Driver/Src/stm32f1xx_hal_exti.c ****         (++) Interrupt
  20:Drivers/STM32F1xx_HAL_Driver/Src/stm32f1xx_hal_exti.c ****         (++) Event
  21:Drivers/STM32F1xx_HAL_Driver/Src/stm32f1xx_hal_exti.c ****         (++) Both of them
  22:Drivers/STM32F1xx_HAL_Driver/Src/stm32f1xx_hal_exti.c **** 
  23:Drivers/STM32F1xx_HAL_Driver/Src/stm32f1xx_hal_exti.c ****     (+) Configurable Exti lines can be configured with 3 different triggers
  24:Drivers/STM32F1xx_HAL_Driver/Src/stm32f1xx_hal_exti.c ****         (++) Rising
  25:Drivers/STM32F1xx_HAL_Driver/Src/stm32f1xx_hal_exti.c ****         (++) Falling
  26:Drivers/STM32F1xx_HAL_Driver/Src/stm32f1xx_hal_exti.c ****         (++) Both of them
  27:Drivers/STM32F1xx_HAL_Driver/Src/stm32f1xx_hal_exti.c **** 
  28:Drivers/STM32F1xx_HAL_Driver/Src/stm32f1xx_hal_exti.c ****     (+) When set in interrupt mode, configurable Exti lines have two different
  29:Drivers/STM32F1xx_HAL_Driver/Src/stm32f1xx_hal_exti.c ****         interrupts pending registers which allow to distinguish which transition
  30:Drivers/STM32F1xx_HAL_Driver/Src/stm32f1xx_hal_exti.c ****         occurs:
  31:Drivers/STM32F1xx_HAL_Driver/Src/stm32f1xx_hal_exti.c ****         (++) Rising edge pending interrupt
  32:Drivers/STM32F1xx_HAL_Driver/Src/stm32f1xx_hal_exti.c ****         (++) Falling
ARM GAS  C:\Users\ben96\AppData\Local\Temp\ccIzE967.s 			page 2


  33:Drivers/STM32F1xx_HAL_Driver/Src/stm32f1xx_hal_exti.c **** 
  34:Drivers/STM32F1xx_HAL_Driver/Src/stm32f1xx_hal_exti.c ****     (+) Exti lines 0 to 15 are linked to gpio pin number 0 to 15. Gpio port can
  35:Drivers/STM32F1xx_HAL_Driver/Src/stm32f1xx_hal_exti.c ****         be selected through multiplexer.
  36:Drivers/STM32F1xx_HAL_Driver/Src/stm32f1xx_hal_exti.c **** 
  37:Drivers/STM32F1xx_HAL_Driver/Src/stm32f1xx_hal_exti.c ****                      ##### How to use this driver #####
  38:Drivers/STM32F1xx_HAL_Driver/Src/stm32f1xx_hal_exti.c ****   ==============================================================================
  39:Drivers/STM32F1xx_HAL_Driver/Src/stm32f1xx_hal_exti.c ****   [..]
  40:Drivers/STM32F1xx_HAL_Driver/Src/stm32f1xx_hal_exti.c **** 
  41:Drivers/STM32F1xx_HAL_Driver/Src/stm32f1xx_hal_exti.c ****     (#) Configure the EXTI line using HAL_EXTI_SetConfigLine().
  42:Drivers/STM32F1xx_HAL_Driver/Src/stm32f1xx_hal_exti.c ****         (++) Choose the interrupt line number by setting "Line" member from
  43:Drivers/STM32F1xx_HAL_Driver/Src/stm32f1xx_hal_exti.c ****              EXTI_ConfigTypeDef structure.
  44:Drivers/STM32F1xx_HAL_Driver/Src/stm32f1xx_hal_exti.c ****         (++) Configure the interrupt and/or event mode using "Mode" member from
  45:Drivers/STM32F1xx_HAL_Driver/Src/stm32f1xx_hal_exti.c ****              EXTI_ConfigTypeDef structure.
  46:Drivers/STM32F1xx_HAL_Driver/Src/stm32f1xx_hal_exti.c ****         (++) For configurable lines, configure rising and/or falling trigger
  47:Drivers/STM32F1xx_HAL_Driver/Src/stm32f1xx_hal_exti.c ****              "Trigger" member from EXTI_ConfigTypeDef structure.
  48:Drivers/STM32F1xx_HAL_Driver/Src/stm32f1xx_hal_exti.c ****         (++) For Exti lines linked to gpio, choose gpio port using "GPIOSel"
  49:Drivers/STM32F1xx_HAL_Driver/Src/stm32f1xx_hal_exti.c ****              member from GPIO_InitTypeDef structure.
  50:Drivers/STM32F1xx_HAL_Driver/Src/stm32f1xx_hal_exti.c **** 
  51:Drivers/STM32F1xx_HAL_Driver/Src/stm32f1xx_hal_exti.c ****     (#) Get current Exti configuration of a dedicated line using
  52:Drivers/STM32F1xx_HAL_Driver/Src/stm32f1xx_hal_exti.c ****         HAL_EXTI_GetConfigLine().
  53:Drivers/STM32F1xx_HAL_Driver/Src/stm32f1xx_hal_exti.c ****         (++) Provide exiting handle as parameter.
  54:Drivers/STM32F1xx_HAL_Driver/Src/stm32f1xx_hal_exti.c ****         (++) Provide pointer on EXTI_ConfigTypeDef structure as second parameter.
  55:Drivers/STM32F1xx_HAL_Driver/Src/stm32f1xx_hal_exti.c **** 
  56:Drivers/STM32F1xx_HAL_Driver/Src/stm32f1xx_hal_exti.c ****     (#) Clear Exti configuration of a dedicated line using HAL_EXTI_GetConfigLine().
  57:Drivers/STM32F1xx_HAL_Driver/Src/stm32f1xx_hal_exti.c ****         (++) Provide exiting handle as parameter.
  58:Drivers/STM32F1xx_HAL_Driver/Src/stm32f1xx_hal_exti.c **** 
  59:Drivers/STM32F1xx_HAL_Driver/Src/stm32f1xx_hal_exti.c ****     (#) Register callback to treat Exti interrupts using HAL_EXTI_RegisterCallback().
  60:Drivers/STM32F1xx_HAL_Driver/Src/stm32f1xx_hal_exti.c ****         (++) Provide exiting handle as first parameter.
  61:Drivers/STM32F1xx_HAL_Driver/Src/stm32f1xx_hal_exti.c ****         (++) Provide which callback will be registered using one value from
  62:Drivers/STM32F1xx_HAL_Driver/Src/stm32f1xx_hal_exti.c ****              EXTI_CallbackIDTypeDef.
  63:Drivers/STM32F1xx_HAL_Driver/Src/stm32f1xx_hal_exti.c ****         (++) Provide callback function pointer.
  64:Drivers/STM32F1xx_HAL_Driver/Src/stm32f1xx_hal_exti.c **** 
  65:Drivers/STM32F1xx_HAL_Driver/Src/stm32f1xx_hal_exti.c ****     (#) Get interrupt pending bit using HAL_EXTI_GetPending().
  66:Drivers/STM32F1xx_HAL_Driver/Src/stm32f1xx_hal_exti.c **** 
  67:Drivers/STM32F1xx_HAL_Driver/Src/stm32f1xx_hal_exti.c ****     (#) Clear interrupt pending bit using HAL_EXTI_GetPending().
  68:Drivers/STM32F1xx_HAL_Driver/Src/stm32f1xx_hal_exti.c **** 
  69:Drivers/STM32F1xx_HAL_Driver/Src/stm32f1xx_hal_exti.c ****     (#) Generate software interrupt using HAL_EXTI_GenerateSWI().
  70:Drivers/STM32F1xx_HAL_Driver/Src/stm32f1xx_hal_exti.c **** 
  71:Drivers/STM32F1xx_HAL_Driver/Src/stm32f1xx_hal_exti.c ****   @endverbatim
  72:Drivers/STM32F1xx_HAL_Driver/Src/stm32f1xx_hal_exti.c ****   ******************************************************************************
  73:Drivers/STM32F1xx_HAL_Driver/Src/stm32f1xx_hal_exti.c ****   * @attention
  74:Drivers/STM32F1xx_HAL_Driver/Src/stm32f1xx_hal_exti.c ****   *
  75:Drivers/STM32F1xx_HAL_Driver/Src/stm32f1xx_hal_exti.c ****   * <h2><center>&copy; Copyright (c) 2019 STMicroelectronics.
  76:Drivers/STM32F1xx_HAL_Driver/Src/stm32f1xx_hal_exti.c ****   * All rights reserved.</center></h2>
  77:Drivers/STM32F1xx_HAL_Driver/Src/stm32f1xx_hal_exti.c ****   *
  78:Drivers/STM32F1xx_HAL_Driver/Src/stm32f1xx_hal_exti.c ****   * This software component is licensed by ST under BSD 3-Clause license,
  79:Drivers/STM32F1xx_HAL_Driver/Src/stm32f1xx_hal_exti.c ****   * the "License"; You may not use this file except in compliance with the
  80:Drivers/STM32F1xx_HAL_Driver/Src/stm32f1xx_hal_exti.c ****   * License. You may obtain a copy of the License at:
  81:Drivers/STM32F1xx_HAL_Driver/Src/stm32f1xx_hal_exti.c ****   *                        opensource.org/licenses/BSD-3-Clause
  82:Drivers/STM32F1xx_HAL_Driver/Src/stm32f1xx_hal_exti.c ****   *
  83:Drivers/STM32F1xx_HAL_Driver/Src/stm32f1xx_hal_exti.c ****   ******************************************************************************
  84:Drivers/STM32F1xx_HAL_Driver/Src/stm32f1xx_hal_exti.c ****   */
  85:Drivers/STM32F1xx_HAL_Driver/Src/stm32f1xx_hal_exti.c **** 
  86:Drivers/STM32F1xx_HAL_Driver/Src/stm32f1xx_hal_exti.c **** /* Includes ------------------------------------------------------------------*/
  87:Drivers/STM32F1xx_HAL_Driver/Src/stm32f1xx_hal_exti.c **** #include "stm32f1xx_hal.h"
  88:Drivers/STM32F1xx_HAL_Driver/Src/stm32f1xx_hal_exti.c **** 
  89:Drivers/STM32F1xx_HAL_Driver/Src/stm32f1xx_hal_exti.c **** /** @addtogroup STM32F1xx_HAL_Driver
ARM GAS  C:\Users\ben96\AppData\Local\Temp\ccIzE967.s 			page 3


  90:Drivers/STM32F1xx_HAL_Driver/Src/stm32f1xx_hal_exti.c ****   * @{
  91:Drivers/STM32F1xx_HAL_Driver/Src/stm32f1xx_hal_exti.c ****   */
  92:Drivers/STM32F1xx_HAL_Driver/Src/stm32f1xx_hal_exti.c **** 
  93:Drivers/STM32F1xx_HAL_Driver/Src/stm32f1xx_hal_exti.c **** /** @addtogroup EXTI
  94:Drivers/STM32F1xx_HAL_Driver/Src/stm32f1xx_hal_exti.c ****   * @{
  95:Drivers/STM32F1xx_HAL_Driver/Src/stm32f1xx_hal_exti.c ****   */
  96:Drivers/STM32F1xx_HAL_Driver/Src/stm32f1xx_hal_exti.c **** /** MISRA C:2012 deviation rule has been granted for following rule:
  97:Drivers/STM32F1xx_HAL_Driver/Src/stm32f1xx_hal_exti.c ****   * Rule-18.1_b - Medium: Array `EXTICR' 1st subscript interval [0,7] may be out
  98:Drivers/STM32F1xx_HAL_Driver/Src/stm32f1xx_hal_exti.c ****   * of bounds [0,3] in following API :
  99:Drivers/STM32F1xx_HAL_Driver/Src/stm32f1xx_hal_exti.c ****   * HAL_EXTI_SetConfigLine
 100:Drivers/STM32F1xx_HAL_Driver/Src/stm32f1xx_hal_exti.c ****   * HAL_EXTI_GetConfigLine
 101:Drivers/STM32F1xx_HAL_Driver/Src/stm32f1xx_hal_exti.c ****   * HAL_EXTI_ClearConfigLine
 102:Drivers/STM32F1xx_HAL_Driver/Src/stm32f1xx_hal_exti.c ****   */
 103:Drivers/STM32F1xx_HAL_Driver/Src/stm32f1xx_hal_exti.c **** 
 104:Drivers/STM32F1xx_HAL_Driver/Src/stm32f1xx_hal_exti.c **** #ifdef HAL_EXTI_MODULE_ENABLED
 105:Drivers/STM32F1xx_HAL_Driver/Src/stm32f1xx_hal_exti.c **** 
 106:Drivers/STM32F1xx_HAL_Driver/Src/stm32f1xx_hal_exti.c **** /* Private typedef -----------------------------------------------------------*/
 107:Drivers/STM32F1xx_HAL_Driver/Src/stm32f1xx_hal_exti.c **** /* Private defines -----------------------------------------------------------*/
 108:Drivers/STM32F1xx_HAL_Driver/Src/stm32f1xx_hal_exti.c **** /** @defgroup EXTI_Private_Constants EXTI Private Constants
 109:Drivers/STM32F1xx_HAL_Driver/Src/stm32f1xx_hal_exti.c ****   * @{
 110:Drivers/STM32F1xx_HAL_Driver/Src/stm32f1xx_hal_exti.c ****   */
 111:Drivers/STM32F1xx_HAL_Driver/Src/stm32f1xx_hal_exti.c **** 
 112:Drivers/STM32F1xx_HAL_Driver/Src/stm32f1xx_hal_exti.c **** /**
 113:Drivers/STM32F1xx_HAL_Driver/Src/stm32f1xx_hal_exti.c ****   * @}
 114:Drivers/STM32F1xx_HAL_Driver/Src/stm32f1xx_hal_exti.c ****   */
 115:Drivers/STM32F1xx_HAL_Driver/Src/stm32f1xx_hal_exti.c **** 
 116:Drivers/STM32F1xx_HAL_Driver/Src/stm32f1xx_hal_exti.c **** /* Private macros ------------------------------------------------------------*/
 117:Drivers/STM32F1xx_HAL_Driver/Src/stm32f1xx_hal_exti.c **** /* Private variables ---------------------------------------------------------*/
 118:Drivers/STM32F1xx_HAL_Driver/Src/stm32f1xx_hal_exti.c **** /* Private function prototypes -----------------------------------------------*/
 119:Drivers/STM32F1xx_HAL_Driver/Src/stm32f1xx_hal_exti.c **** /* Exported functions --------------------------------------------------------*/
 120:Drivers/STM32F1xx_HAL_Driver/Src/stm32f1xx_hal_exti.c **** 
 121:Drivers/STM32F1xx_HAL_Driver/Src/stm32f1xx_hal_exti.c **** /** @addtogroup EXTI_Exported_Functions
 122:Drivers/STM32F1xx_HAL_Driver/Src/stm32f1xx_hal_exti.c ****   * @{
 123:Drivers/STM32F1xx_HAL_Driver/Src/stm32f1xx_hal_exti.c ****   */
 124:Drivers/STM32F1xx_HAL_Driver/Src/stm32f1xx_hal_exti.c **** 
 125:Drivers/STM32F1xx_HAL_Driver/Src/stm32f1xx_hal_exti.c **** /** @addtogroup EXTI_Exported_Functions_Group1
 126:Drivers/STM32F1xx_HAL_Driver/Src/stm32f1xx_hal_exti.c ****   *  @brief    Configuration functions
 127:Drivers/STM32F1xx_HAL_Driver/Src/stm32f1xx_hal_exti.c ****   *
 128:Drivers/STM32F1xx_HAL_Driver/Src/stm32f1xx_hal_exti.c **** @verbatim
 129:Drivers/STM32F1xx_HAL_Driver/Src/stm32f1xx_hal_exti.c ****  ===============================================================================
 130:Drivers/STM32F1xx_HAL_Driver/Src/stm32f1xx_hal_exti.c ****               ##### Configuration functions #####
 131:Drivers/STM32F1xx_HAL_Driver/Src/stm32f1xx_hal_exti.c ****  ===============================================================================
 132:Drivers/STM32F1xx_HAL_Driver/Src/stm32f1xx_hal_exti.c **** 
 133:Drivers/STM32F1xx_HAL_Driver/Src/stm32f1xx_hal_exti.c **** @endverbatim
 134:Drivers/STM32F1xx_HAL_Driver/Src/stm32f1xx_hal_exti.c ****   * @{
 135:Drivers/STM32F1xx_HAL_Driver/Src/stm32f1xx_hal_exti.c ****   */
 136:Drivers/STM32F1xx_HAL_Driver/Src/stm32f1xx_hal_exti.c **** 
 137:Drivers/STM32F1xx_HAL_Driver/Src/stm32f1xx_hal_exti.c **** /**
 138:Drivers/STM32F1xx_HAL_Driver/Src/stm32f1xx_hal_exti.c ****   * @brief  Set configuration of a dedicated Exti line.
 139:Drivers/STM32F1xx_HAL_Driver/Src/stm32f1xx_hal_exti.c ****   * @param  hexti Exti handle.
 140:Drivers/STM32F1xx_HAL_Driver/Src/stm32f1xx_hal_exti.c ****   * @param  pExtiConfig Pointer on EXTI configuration to be set.
 141:Drivers/STM32F1xx_HAL_Driver/Src/stm32f1xx_hal_exti.c ****   * @retval HAL Status.
 142:Drivers/STM32F1xx_HAL_Driver/Src/stm32f1xx_hal_exti.c ****   */
 143:Drivers/STM32F1xx_HAL_Driver/Src/stm32f1xx_hal_exti.c **** HAL_StatusTypeDef HAL_EXTI_SetConfigLine(EXTI_HandleTypeDef *hexti, EXTI_ConfigTypeDef *pExtiConfig
 144:Drivers/STM32F1xx_HAL_Driver/Src/stm32f1xx_hal_exti.c **** {
  27              		.loc 1 144 1
  28              		.cfi_startproc
ARM GAS  C:\Users\ben96\AppData\Local\Temp\ccIzE967.s 			page 4


  29              		@ args = 0, pretend = 0, frame = 24
  30              		@ frame_needed = 1, uses_anonymous_args = 0
  31              		@ link register save eliminated.
  32 0000 80B4     		push	{r7}
  33              	.LCFI0:
  34              		.cfi_def_cfa_offset 4
  35              		.cfi_offset 7, -4
  36 0002 87B0     		sub	sp, sp, #28
  37              	.LCFI1:
  38              		.cfi_def_cfa_offset 32
  39 0004 00AF     		add	r7, sp, #0
  40              	.LCFI2:
  41              		.cfi_def_cfa_register 7
  42 0006 7860     		str	r0, [r7, #4]
  43 0008 3960     		str	r1, [r7]
 145:Drivers/STM32F1xx_HAL_Driver/Src/stm32f1xx_hal_exti.c ****   uint32_t regval;
 146:Drivers/STM32F1xx_HAL_Driver/Src/stm32f1xx_hal_exti.c ****   uint32_t linepos;
 147:Drivers/STM32F1xx_HAL_Driver/Src/stm32f1xx_hal_exti.c ****   uint32_t maskline;
 148:Drivers/STM32F1xx_HAL_Driver/Src/stm32f1xx_hal_exti.c **** 
 149:Drivers/STM32F1xx_HAL_Driver/Src/stm32f1xx_hal_exti.c ****   /* Check null pointer */
 150:Drivers/STM32F1xx_HAL_Driver/Src/stm32f1xx_hal_exti.c ****   if ((hexti == NULL) || (pExtiConfig == NULL))
  44              		.loc 1 150 6
  45 000a 7B68     		ldr	r3, [r7, #4]
  46 000c 002B     		cmp	r3, #0
  47 000e 02D0     		beq	.L2
  48              		.loc 1 150 23 discriminator 1
  49 0010 3B68     		ldr	r3, [r7]
  50 0012 002B     		cmp	r3, #0
  51 0014 01D1     		bne	.L3
  52              	.L2:
 151:Drivers/STM32F1xx_HAL_Driver/Src/stm32f1xx_hal_exti.c ****   {
 152:Drivers/STM32F1xx_HAL_Driver/Src/stm32f1xx_hal_exti.c ****     return HAL_ERROR;
  53              		.loc 1 152 12
  54 0016 0123     		movs	r3, #1
  55 0018 8FE0     		b	.L4
  56              	.L3:
 153:Drivers/STM32F1xx_HAL_Driver/Src/stm32f1xx_hal_exti.c ****   }
 154:Drivers/STM32F1xx_HAL_Driver/Src/stm32f1xx_hal_exti.c **** 
 155:Drivers/STM32F1xx_HAL_Driver/Src/stm32f1xx_hal_exti.c ****   /* Check parameters */
 156:Drivers/STM32F1xx_HAL_Driver/Src/stm32f1xx_hal_exti.c ****   assert_param(IS_EXTI_LINE(pExtiConfig->Line));
 157:Drivers/STM32F1xx_HAL_Driver/Src/stm32f1xx_hal_exti.c ****   assert_param(IS_EXTI_MODE(pExtiConfig->Mode));
 158:Drivers/STM32F1xx_HAL_Driver/Src/stm32f1xx_hal_exti.c **** 
 159:Drivers/STM32F1xx_HAL_Driver/Src/stm32f1xx_hal_exti.c ****   /* Assign line number to handle */
 160:Drivers/STM32F1xx_HAL_Driver/Src/stm32f1xx_hal_exti.c ****   hexti->Line = pExtiConfig->Line;
  57              		.loc 1 160 28
  58 001a 3B68     		ldr	r3, [r7]
  59 001c 1A68     		ldr	r2, [r3]
  60              		.loc 1 160 15
  61 001e 7B68     		ldr	r3, [r7, #4]
  62 0020 1A60     		str	r2, [r3]
 161:Drivers/STM32F1xx_HAL_Driver/Src/stm32f1xx_hal_exti.c **** 
 162:Drivers/STM32F1xx_HAL_Driver/Src/stm32f1xx_hal_exti.c ****   /* Compute line mask */
 163:Drivers/STM32F1xx_HAL_Driver/Src/stm32f1xx_hal_exti.c ****   linepos = (pExtiConfig->Line & EXTI_PIN_MASK);
  63              		.loc 1 163 25
  64 0022 3B68     		ldr	r3, [r7]
  65 0024 1B68     		ldr	r3, [r3]
  66              		.loc 1 163 11
ARM GAS  C:\Users\ben96\AppData\Local\Temp\ccIzE967.s 			page 5


  67 0026 03F01F03 		and	r3, r3, #31
  68 002a 7B61     		str	r3, [r7, #20]
 164:Drivers/STM32F1xx_HAL_Driver/Src/stm32f1xx_hal_exti.c ****   maskline = (1uL << linepos);
  69              		.loc 1 164 12
  70 002c 0122     		movs	r2, #1
  71 002e 7B69     		ldr	r3, [r7, #20]
  72 0030 02FA03F3 		lsl	r3, r2, r3
  73 0034 3B61     		str	r3, [r7, #16]
 165:Drivers/STM32F1xx_HAL_Driver/Src/stm32f1xx_hal_exti.c **** 
 166:Drivers/STM32F1xx_HAL_Driver/Src/stm32f1xx_hal_exti.c ****   /* Configure triggers for configurable lines */
 167:Drivers/STM32F1xx_HAL_Driver/Src/stm32f1xx_hal_exti.c ****   if ((pExtiConfig->Line & EXTI_CONFIG) != 0x00u)
  74              		.loc 1 167 19
  75 0036 3B68     		ldr	r3, [r7]
  76 0038 1B68     		ldr	r3, [r3]
  77              		.loc 1 167 26
  78 003a 03F00073 		and	r3, r3, #33554432
  79              		.loc 1 167 6
  80 003e 002B     		cmp	r3, #0
  81 0040 52D0     		beq	.L5
 168:Drivers/STM32F1xx_HAL_Driver/Src/stm32f1xx_hal_exti.c ****   {
 169:Drivers/STM32F1xx_HAL_Driver/Src/stm32f1xx_hal_exti.c ****     assert_param(IS_EXTI_TRIGGER(pExtiConfig->Trigger));
 170:Drivers/STM32F1xx_HAL_Driver/Src/stm32f1xx_hal_exti.c **** 
 171:Drivers/STM32F1xx_HAL_Driver/Src/stm32f1xx_hal_exti.c ****     /* Configure rising trigger */
 172:Drivers/STM32F1xx_HAL_Driver/Src/stm32f1xx_hal_exti.c ****     /* Mask or set line */
 173:Drivers/STM32F1xx_HAL_Driver/Src/stm32f1xx_hal_exti.c ****     if ((pExtiConfig->Trigger & EXTI_TRIGGER_RISING) != 0x00u)
  82              		.loc 1 173 21
  83 0042 3B68     		ldr	r3, [r7]
  84 0044 9B68     		ldr	r3, [r3, #8]
  85              		.loc 1 173 31
  86 0046 03F00103 		and	r3, r3, #1
  87              		.loc 1 173 8
  88 004a 002B     		cmp	r3, #0
  89 004c 06D0     		beq	.L6
 174:Drivers/STM32F1xx_HAL_Driver/Src/stm32f1xx_hal_exti.c ****     {
 175:Drivers/STM32F1xx_HAL_Driver/Src/stm32f1xx_hal_exti.c ****       EXTI->RTSR |= maskline;
  90              		.loc 1 175 18
  91 004e 3D4B     		ldr	r3, .L14
  92 0050 9A68     		ldr	r2, [r3, #8]
  93 0052 3C49     		ldr	r1, .L14
  94 0054 3B69     		ldr	r3, [r7, #16]
  95 0056 1343     		orrs	r3, r3, r2
  96 0058 8B60     		str	r3, [r1, #8]
  97 005a 06E0     		b	.L7
  98              	.L6:
 176:Drivers/STM32F1xx_HAL_Driver/Src/stm32f1xx_hal_exti.c ****     }
 177:Drivers/STM32F1xx_HAL_Driver/Src/stm32f1xx_hal_exti.c ****     else
 178:Drivers/STM32F1xx_HAL_Driver/Src/stm32f1xx_hal_exti.c ****     {
 179:Drivers/STM32F1xx_HAL_Driver/Src/stm32f1xx_hal_exti.c ****       EXTI->RTSR &= ~maskline;
  99              		.loc 1 179 18
 100 005c 394B     		ldr	r3, .L14
 101 005e 9A68     		ldr	r2, [r3, #8]
 102              		.loc 1 179 21
 103 0060 3B69     		ldr	r3, [r7, #16]
 104 0062 DB43     		mvns	r3, r3
 105              		.loc 1 179 18
 106 0064 3749     		ldr	r1, .L14
 107 0066 1340     		ands	r3, r3, r2
ARM GAS  C:\Users\ben96\AppData\Local\Temp\ccIzE967.s 			page 6


 108 0068 8B60     		str	r3, [r1, #8]
 109              	.L7:
 180:Drivers/STM32F1xx_HAL_Driver/Src/stm32f1xx_hal_exti.c ****     }
 181:Drivers/STM32F1xx_HAL_Driver/Src/stm32f1xx_hal_exti.c **** 
 182:Drivers/STM32F1xx_HAL_Driver/Src/stm32f1xx_hal_exti.c ****     /* Configure falling trigger */
 183:Drivers/STM32F1xx_HAL_Driver/Src/stm32f1xx_hal_exti.c ****     /* Mask or set line */
 184:Drivers/STM32F1xx_HAL_Driver/Src/stm32f1xx_hal_exti.c ****     if ((pExtiConfig->Trigger & EXTI_TRIGGER_FALLING) != 0x00u)
 110              		.loc 1 184 21
 111 006a 3B68     		ldr	r3, [r7]
 112 006c 9B68     		ldr	r3, [r3, #8]
 113              		.loc 1 184 31
 114 006e 03F00203 		and	r3, r3, #2
 115              		.loc 1 184 8
 116 0072 002B     		cmp	r3, #0
 117 0074 06D0     		beq	.L8
 185:Drivers/STM32F1xx_HAL_Driver/Src/stm32f1xx_hal_exti.c ****     {
 186:Drivers/STM32F1xx_HAL_Driver/Src/stm32f1xx_hal_exti.c ****       EXTI->FTSR |= maskline;
 118              		.loc 1 186 18
 119 0076 334B     		ldr	r3, .L14
 120 0078 DA68     		ldr	r2, [r3, #12]
 121 007a 3249     		ldr	r1, .L14
 122 007c 3B69     		ldr	r3, [r7, #16]
 123 007e 1343     		orrs	r3, r3, r2
 124 0080 CB60     		str	r3, [r1, #12]
 125 0082 06E0     		b	.L9
 126              	.L8:
 187:Drivers/STM32F1xx_HAL_Driver/Src/stm32f1xx_hal_exti.c ****     }
 188:Drivers/STM32F1xx_HAL_Driver/Src/stm32f1xx_hal_exti.c ****     else
 189:Drivers/STM32F1xx_HAL_Driver/Src/stm32f1xx_hal_exti.c ****     {
 190:Drivers/STM32F1xx_HAL_Driver/Src/stm32f1xx_hal_exti.c ****       EXTI->FTSR &= ~maskline;
 127              		.loc 1 190 18
 128 0084 2F4B     		ldr	r3, .L14
 129 0086 DA68     		ldr	r2, [r3, #12]
 130              		.loc 1 190 21
 131 0088 3B69     		ldr	r3, [r7, #16]
 132 008a DB43     		mvns	r3, r3
 133              		.loc 1 190 18
 134 008c 2D49     		ldr	r1, .L14
 135 008e 1340     		ands	r3, r3, r2
 136 0090 CB60     		str	r3, [r1, #12]
 137              	.L9:
 191:Drivers/STM32F1xx_HAL_Driver/Src/stm32f1xx_hal_exti.c ****     }
 192:Drivers/STM32F1xx_HAL_Driver/Src/stm32f1xx_hal_exti.c **** 
 193:Drivers/STM32F1xx_HAL_Driver/Src/stm32f1xx_hal_exti.c **** 
 194:Drivers/STM32F1xx_HAL_Driver/Src/stm32f1xx_hal_exti.c ****     /* Configure gpio port selection in case of gpio exti line */
 195:Drivers/STM32F1xx_HAL_Driver/Src/stm32f1xx_hal_exti.c ****     if ((pExtiConfig->Line & EXTI_GPIO) == EXTI_GPIO)
 138              		.loc 1 195 21
 139 0092 3B68     		ldr	r3, [r7]
 140 0094 1B68     		ldr	r3, [r3]
 141              		.loc 1 195 28
 142 0096 03F0C063 		and	r3, r3, #100663296
 143              		.loc 1 195 8
 144 009a B3F1C06F 		cmp	r3, #100663296
 145 009e 23D1     		bne	.L5
 196:Drivers/STM32F1xx_HAL_Driver/Src/stm32f1xx_hal_exti.c ****     {
 197:Drivers/STM32F1xx_HAL_Driver/Src/stm32f1xx_hal_exti.c ****       assert_param(IS_EXTI_GPIO_PORT(pExtiConfig->GPIOSel));
 198:Drivers/STM32F1xx_HAL_Driver/Src/stm32f1xx_hal_exti.c ****       assert_param(IS_EXTI_GPIO_PIN(linepos));
ARM GAS  C:\Users\ben96\AppData\Local\Temp\ccIzE967.s 			page 7


 199:Drivers/STM32F1xx_HAL_Driver/Src/stm32f1xx_hal_exti.c ****       
 200:Drivers/STM32F1xx_HAL_Driver/Src/stm32f1xx_hal_exti.c ****       regval = AFIO->EXTICR[linepos >> 2u];
 146              		.loc 1 200 20
 147 00a0 294A     		ldr	r2, .L14+4
 148              		.loc 1 200 37
 149 00a2 7B69     		ldr	r3, [r7, #20]
 150 00a4 9B08     		lsrs	r3, r3, #2
 151              		.loc 1 200 14
 152 00a6 0233     		adds	r3, r3, #2
 153 00a8 52F82330 		ldr	r3, [r2, r3, lsl #2]
 154 00ac FB60     		str	r3, [r7, #12]
 201:Drivers/STM32F1xx_HAL_Driver/Src/stm32f1xx_hal_exti.c ****       regval &= ~(AFIO_EXTICR1_EXTI0 << (AFIO_EXTICR1_EXTI1_Pos * (linepos & 0x03u)));
 155              		.loc 1 201 76
 156 00ae 7B69     		ldr	r3, [r7, #20]
 157 00b0 03F00303 		and	r3, r3, #3
 158              		.loc 1 201 65
 159 00b4 9B00     		lsls	r3, r3, #2
 160              		.loc 1 201 38
 161 00b6 0F22     		movs	r2, #15
 162 00b8 02FA03F3 		lsl	r3, r2, r3
 163              		.loc 1 201 17
 164 00bc DB43     		mvns	r3, r3
 165              		.loc 1 201 14
 166 00be FA68     		ldr	r2, [r7, #12]
 167 00c0 1340     		ands	r3, r3, r2
 168 00c2 FB60     		str	r3, [r7, #12]
 202:Drivers/STM32F1xx_HAL_Driver/Src/stm32f1xx_hal_exti.c ****       regval |= (pExtiConfig->GPIOSel << (AFIO_EXTICR1_EXTI1_Pos * (linepos & 0x03u)));
 169              		.loc 1 202 29
 170 00c4 3B68     		ldr	r3, [r7]
 171 00c6 DA68     		ldr	r2, [r3, #12]
 172              		.loc 1 202 77
 173 00c8 7B69     		ldr	r3, [r7, #20]
 174 00ca 03F00303 		and	r3, r3, #3
 175              		.loc 1 202 66
 176 00ce 9B00     		lsls	r3, r3, #2
 177              		.loc 1 202 39
 178 00d0 02FA03F3 		lsl	r3, r2, r3
 179              		.loc 1 202 14
 180 00d4 FA68     		ldr	r2, [r7, #12]
 181 00d6 1343     		orrs	r3, r3, r2
 182 00d8 FB60     		str	r3, [r7, #12]
 203:Drivers/STM32F1xx_HAL_Driver/Src/stm32f1xx_hal_exti.c ****       AFIO->EXTICR[linepos >> 2u] = regval;
 183              		.loc 1 203 11
 184 00da 1B49     		ldr	r1, .L14+4
 185              		.loc 1 203 28
 186 00dc 7B69     		ldr	r3, [r7, #20]
 187 00de 9B08     		lsrs	r3, r3, #2
 188              		.loc 1 203 35
 189 00e0 0233     		adds	r3, r3, #2
 190 00e2 FA68     		ldr	r2, [r7, #12]
 191 00e4 41F82320 		str	r2, [r1, r3, lsl #2]
 192              	.L5:
 204:Drivers/STM32F1xx_HAL_Driver/Src/stm32f1xx_hal_exti.c ****     }
 205:Drivers/STM32F1xx_HAL_Driver/Src/stm32f1xx_hal_exti.c ****   }
 206:Drivers/STM32F1xx_HAL_Driver/Src/stm32f1xx_hal_exti.c **** 
 207:Drivers/STM32F1xx_HAL_Driver/Src/stm32f1xx_hal_exti.c ****   /* Configure interrupt mode : read current mode */
 208:Drivers/STM32F1xx_HAL_Driver/Src/stm32f1xx_hal_exti.c ****   /* Mask or set line */
ARM GAS  C:\Users\ben96\AppData\Local\Temp\ccIzE967.s 			page 8


 209:Drivers/STM32F1xx_HAL_Driver/Src/stm32f1xx_hal_exti.c ****   if ((pExtiConfig->Mode & EXTI_MODE_INTERRUPT) != 0x00u)
 193              		.loc 1 209 19
 194 00e8 3B68     		ldr	r3, [r7]
 195 00ea 5B68     		ldr	r3, [r3, #4]
 196              		.loc 1 209 26
 197 00ec 03F00103 		and	r3, r3, #1
 198              		.loc 1 209 6
 199 00f0 002B     		cmp	r3, #0
 200 00f2 06D0     		beq	.L10
 210:Drivers/STM32F1xx_HAL_Driver/Src/stm32f1xx_hal_exti.c ****   {
 211:Drivers/STM32F1xx_HAL_Driver/Src/stm32f1xx_hal_exti.c ****     EXTI->IMR |= maskline;
 201              		.loc 1 211 15
 202 00f4 134B     		ldr	r3, .L14
 203 00f6 1A68     		ldr	r2, [r3]
 204 00f8 1249     		ldr	r1, .L14
 205 00fa 3B69     		ldr	r3, [r7, #16]
 206 00fc 1343     		orrs	r3, r3, r2
 207 00fe 0B60     		str	r3, [r1]
 208 0100 06E0     		b	.L11
 209              	.L10:
 212:Drivers/STM32F1xx_HAL_Driver/Src/stm32f1xx_hal_exti.c ****   }
 213:Drivers/STM32F1xx_HAL_Driver/Src/stm32f1xx_hal_exti.c ****   else
 214:Drivers/STM32F1xx_HAL_Driver/Src/stm32f1xx_hal_exti.c ****   {
 215:Drivers/STM32F1xx_HAL_Driver/Src/stm32f1xx_hal_exti.c ****     EXTI->IMR &= ~maskline;
 210              		.loc 1 215 15
 211 0102 104B     		ldr	r3, .L14
 212 0104 1A68     		ldr	r2, [r3]
 213              		.loc 1 215 18
 214 0106 3B69     		ldr	r3, [r7, #16]
 215 0108 DB43     		mvns	r3, r3
 216              		.loc 1 215 15
 217 010a 0E49     		ldr	r1, .L14
 218 010c 1340     		ands	r3, r3, r2
 219 010e 0B60     		str	r3, [r1]
 220              	.L11:
 216:Drivers/STM32F1xx_HAL_Driver/Src/stm32f1xx_hal_exti.c ****   }
 217:Drivers/STM32F1xx_HAL_Driver/Src/stm32f1xx_hal_exti.c **** 
 218:Drivers/STM32F1xx_HAL_Driver/Src/stm32f1xx_hal_exti.c ****   /* Configure event mode : read current mode */
 219:Drivers/STM32F1xx_HAL_Driver/Src/stm32f1xx_hal_exti.c ****   /* Mask or set line */
 220:Drivers/STM32F1xx_HAL_Driver/Src/stm32f1xx_hal_exti.c ****   if ((pExtiConfig->Mode & EXTI_MODE_EVENT) != 0x00u)
 221              		.loc 1 220 19
 222 0110 3B68     		ldr	r3, [r7]
 223 0112 5B68     		ldr	r3, [r3, #4]
 224              		.loc 1 220 26
 225 0114 03F00203 		and	r3, r3, #2
 226              		.loc 1 220 6
 227 0118 002B     		cmp	r3, #0
 228 011a 06D0     		beq	.L12
 221:Drivers/STM32F1xx_HAL_Driver/Src/stm32f1xx_hal_exti.c ****   {
 222:Drivers/STM32F1xx_HAL_Driver/Src/stm32f1xx_hal_exti.c ****     EXTI->EMR |= maskline;
 229              		.loc 1 222 15
 230 011c 094B     		ldr	r3, .L14
 231 011e 5A68     		ldr	r2, [r3, #4]
 232 0120 0849     		ldr	r1, .L14
 233 0122 3B69     		ldr	r3, [r7, #16]
 234 0124 1343     		orrs	r3, r3, r2
 235 0126 4B60     		str	r3, [r1, #4]
ARM GAS  C:\Users\ben96\AppData\Local\Temp\ccIzE967.s 			page 9


 236 0128 06E0     		b	.L13
 237              	.L12:
 223:Drivers/STM32F1xx_HAL_Driver/Src/stm32f1xx_hal_exti.c ****   }
 224:Drivers/STM32F1xx_HAL_Driver/Src/stm32f1xx_hal_exti.c ****   else
 225:Drivers/STM32F1xx_HAL_Driver/Src/stm32f1xx_hal_exti.c ****   {
 226:Drivers/STM32F1xx_HAL_Driver/Src/stm32f1xx_hal_exti.c ****     EXTI->EMR &= ~maskline;
 238              		.loc 1 226 15
 239 012a 064B     		ldr	r3, .L14
 240 012c 5A68     		ldr	r2, [r3, #4]
 241              		.loc 1 226 18
 242 012e 3B69     		ldr	r3, [r7, #16]
 243 0130 DB43     		mvns	r3, r3
 244              		.loc 1 226 15
 245 0132 0449     		ldr	r1, .L14
 246 0134 1340     		ands	r3, r3, r2
 247 0136 4B60     		str	r3, [r1, #4]
 248              	.L13:
 227:Drivers/STM32F1xx_HAL_Driver/Src/stm32f1xx_hal_exti.c ****   }
 228:Drivers/STM32F1xx_HAL_Driver/Src/stm32f1xx_hal_exti.c **** 
 229:Drivers/STM32F1xx_HAL_Driver/Src/stm32f1xx_hal_exti.c ****   return HAL_OK;
 249              		.loc 1 229 10
 250 0138 0023     		movs	r3, #0
 251              	.L4:
 230:Drivers/STM32F1xx_HAL_Driver/Src/stm32f1xx_hal_exti.c **** }
 252              		.loc 1 230 1
 253 013a 1846     		mov	r0, r3
 254 013c 1C37     		adds	r7, r7, #28
 255              	.LCFI3:
 256              		.cfi_def_cfa_offset 4
 257 013e BD46     		mov	sp, r7
 258              	.LCFI4:
 259              		.cfi_def_cfa_register 13
 260              		@ sp needed
 261 0140 80BC     		pop	{r7}
 262              	.LCFI5:
 263              		.cfi_restore 7
 264              		.cfi_def_cfa_offset 0
 265 0142 7047     		bx	lr
 266              	.L15:
 267              		.align	2
 268              	.L14:
 269 0144 00040140 		.word	1073808384
 270 0148 00000140 		.word	1073807360
 271              		.cfi_endproc
 272              	.LFE65:
 274              		.section	.text.HAL_EXTI_GetConfigLine,"ax",%progbits
 275              		.align	1
 276              		.global	HAL_EXTI_GetConfigLine
 277              		.syntax unified
 278              		.thumb
 279              		.thumb_func
 280              		.fpu softvfp
 282              	HAL_EXTI_GetConfigLine:
 283              	.LFB66:
 231:Drivers/STM32F1xx_HAL_Driver/Src/stm32f1xx_hal_exti.c **** 
 232:Drivers/STM32F1xx_HAL_Driver/Src/stm32f1xx_hal_exti.c **** /**
 233:Drivers/STM32F1xx_HAL_Driver/Src/stm32f1xx_hal_exti.c ****   * @brief  Get configuration of a dedicated Exti line.
ARM GAS  C:\Users\ben96\AppData\Local\Temp\ccIzE967.s 			page 10


 234:Drivers/STM32F1xx_HAL_Driver/Src/stm32f1xx_hal_exti.c ****   * @param  hexti Exti handle.
 235:Drivers/STM32F1xx_HAL_Driver/Src/stm32f1xx_hal_exti.c ****   * @param  pExtiConfig Pointer on structure to store Exti configuration.
 236:Drivers/STM32F1xx_HAL_Driver/Src/stm32f1xx_hal_exti.c ****   * @retval HAL Status.
 237:Drivers/STM32F1xx_HAL_Driver/Src/stm32f1xx_hal_exti.c ****   */
 238:Drivers/STM32F1xx_HAL_Driver/Src/stm32f1xx_hal_exti.c **** HAL_StatusTypeDef HAL_EXTI_GetConfigLine(EXTI_HandleTypeDef *hexti, EXTI_ConfigTypeDef *pExtiConfig
 239:Drivers/STM32F1xx_HAL_Driver/Src/stm32f1xx_hal_exti.c **** {
 284              		.loc 1 239 1
 285              		.cfi_startproc
 286              		@ args = 0, pretend = 0, frame = 24
 287              		@ frame_needed = 1, uses_anonymous_args = 0
 288              		@ link register save eliminated.
 289 0000 80B4     		push	{r7}
 290              	.LCFI6:
 291              		.cfi_def_cfa_offset 4
 292              		.cfi_offset 7, -4
 293 0002 87B0     		sub	sp, sp, #28
 294              	.LCFI7:
 295              		.cfi_def_cfa_offset 32
 296 0004 00AF     		add	r7, sp, #0
 297              	.LCFI8:
 298              		.cfi_def_cfa_register 7
 299 0006 7860     		str	r0, [r7, #4]
 300 0008 3960     		str	r1, [r7]
 240:Drivers/STM32F1xx_HAL_Driver/Src/stm32f1xx_hal_exti.c ****   uint32_t regval;
 241:Drivers/STM32F1xx_HAL_Driver/Src/stm32f1xx_hal_exti.c ****   uint32_t linepos;
 242:Drivers/STM32F1xx_HAL_Driver/Src/stm32f1xx_hal_exti.c ****   uint32_t maskline;
 243:Drivers/STM32F1xx_HAL_Driver/Src/stm32f1xx_hal_exti.c **** 
 244:Drivers/STM32F1xx_HAL_Driver/Src/stm32f1xx_hal_exti.c ****   /* Check null pointer */
 245:Drivers/STM32F1xx_HAL_Driver/Src/stm32f1xx_hal_exti.c ****   if ((hexti == NULL) || (pExtiConfig == NULL))
 301              		.loc 1 245 6
 302 000a 7B68     		ldr	r3, [r7, #4]
 303 000c 002B     		cmp	r3, #0
 304 000e 02D0     		beq	.L17
 305              		.loc 1 245 23 discriminator 1
 306 0010 3B68     		ldr	r3, [r7]
 307 0012 002B     		cmp	r3, #0
 308 0014 01D1     		bne	.L18
 309              	.L17:
 246:Drivers/STM32F1xx_HAL_Driver/Src/stm32f1xx_hal_exti.c ****   {
 247:Drivers/STM32F1xx_HAL_Driver/Src/stm32f1xx_hal_exti.c ****     return HAL_ERROR;
 310              		.loc 1 247 12
 311 0016 0123     		movs	r3, #1
 312 0018 61E0     		b	.L19
 313              	.L18:
 248:Drivers/STM32F1xx_HAL_Driver/Src/stm32f1xx_hal_exti.c ****   }
 249:Drivers/STM32F1xx_HAL_Driver/Src/stm32f1xx_hal_exti.c **** 
 250:Drivers/STM32F1xx_HAL_Driver/Src/stm32f1xx_hal_exti.c ****   /* Check the parameter */
 251:Drivers/STM32F1xx_HAL_Driver/Src/stm32f1xx_hal_exti.c ****   assert_param(IS_EXTI_LINE(hexti->Line));
 252:Drivers/STM32F1xx_HAL_Driver/Src/stm32f1xx_hal_exti.c **** 
 253:Drivers/STM32F1xx_HAL_Driver/Src/stm32f1xx_hal_exti.c ****   /* Store handle line number to configuration structure */
 254:Drivers/STM32F1xx_HAL_Driver/Src/stm32f1xx_hal_exti.c ****   pExtiConfig->Line = hexti->Line;
 314              		.loc 1 254 28
 315 001a 7B68     		ldr	r3, [r7, #4]
 316 001c 1A68     		ldr	r2, [r3]
 317              		.loc 1 254 21
 318 001e 3B68     		ldr	r3, [r7]
 319 0020 1A60     		str	r2, [r3]
ARM GAS  C:\Users\ben96\AppData\Local\Temp\ccIzE967.s 			page 11


 255:Drivers/STM32F1xx_HAL_Driver/Src/stm32f1xx_hal_exti.c **** 
 256:Drivers/STM32F1xx_HAL_Driver/Src/stm32f1xx_hal_exti.c ****   /* Compute line mask */
 257:Drivers/STM32F1xx_HAL_Driver/Src/stm32f1xx_hal_exti.c ****   linepos = (pExtiConfig->Line & EXTI_PIN_MASK);
 320              		.loc 1 257 25
 321 0022 3B68     		ldr	r3, [r7]
 322 0024 1B68     		ldr	r3, [r3]
 323              		.loc 1 257 11
 324 0026 03F01F03 		and	r3, r3, #31
 325 002a 7B61     		str	r3, [r7, #20]
 258:Drivers/STM32F1xx_HAL_Driver/Src/stm32f1xx_hal_exti.c ****   maskline = (1uL << linepos);
 326              		.loc 1 258 12
 327 002c 0122     		movs	r2, #1
 328 002e 7B69     		ldr	r3, [r7, #20]
 329 0030 02FA03F3 		lsl	r3, r2, r3
 330 0034 3B61     		str	r3, [r7, #16]
 259:Drivers/STM32F1xx_HAL_Driver/Src/stm32f1xx_hal_exti.c **** 
 260:Drivers/STM32F1xx_HAL_Driver/Src/stm32f1xx_hal_exti.c ****   /* 1] Get core mode : interrupt */
 261:Drivers/STM32F1xx_HAL_Driver/Src/stm32f1xx_hal_exti.c **** 
 262:Drivers/STM32F1xx_HAL_Driver/Src/stm32f1xx_hal_exti.c ****   /* Check if selected line is enable */
 263:Drivers/STM32F1xx_HAL_Driver/Src/stm32f1xx_hal_exti.c ****   if ((EXTI->IMR & maskline) != 0x00u)
 331              		.loc 1 263 12
 332 0036 2C4B     		ldr	r3, .L26
 333 0038 1A68     		ldr	r2, [r3]
 334              		.loc 1 263 18
 335 003a 3B69     		ldr	r3, [r7, #16]
 336 003c 1340     		ands	r3, r3, r2
 337              		.loc 1 263 6
 338 003e 002B     		cmp	r3, #0
 339 0040 03D0     		beq	.L20
 264:Drivers/STM32F1xx_HAL_Driver/Src/stm32f1xx_hal_exti.c ****   {
 265:Drivers/STM32F1xx_HAL_Driver/Src/stm32f1xx_hal_exti.c ****     pExtiConfig->Mode = EXTI_MODE_INTERRUPT;
 340              		.loc 1 265 23
 341 0042 3B68     		ldr	r3, [r7]
 342 0044 0122     		movs	r2, #1
 343 0046 5A60     		str	r2, [r3, #4]
 344 0048 02E0     		b	.L21
 345              	.L20:
 266:Drivers/STM32F1xx_HAL_Driver/Src/stm32f1xx_hal_exti.c ****   }
 267:Drivers/STM32F1xx_HAL_Driver/Src/stm32f1xx_hal_exti.c ****   else
 268:Drivers/STM32F1xx_HAL_Driver/Src/stm32f1xx_hal_exti.c ****   {
 269:Drivers/STM32F1xx_HAL_Driver/Src/stm32f1xx_hal_exti.c ****     pExtiConfig->Mode = EXTI_MODE_NONE;
 346              		.loc 1 269 23
 347 004a 3B68     		ldr	r3, [r7]
 348 004c 0022     		movs	r2, #0
 349 004e 5A60     		str	r2, [r3, #4]
 350              	.L21:
 270:Drivers/STM32F1xx_HAL_Driver/Src/stm32f1xx_hal_exti.c ****   }
 271:Drivers/STM32F1xx_HAL_Driver/Src/stm32f1xx_hal_exti.c **** 
 272:Drivers/STM32F1xx_HAL_Driver/Src/stm32f1xx_hal_exti.c ****   /* Get event mode */
 273:Drivers/STM32F1xx_HAL_Driver/Src/stm32f1xx_hal_exti.c ****   /* Check if selected line is enable */
 274:Drivers/STM32F1xx_HAL_Driver/Src/stm32f1xx_hal_exti.c ****   if ((EXTI->EMR & maskline) != 0x00u)
 351              		.loc 1 274 12
 352 0050 254B     		ldr	r3, .L26
 353 0052 5A68     		ldr	r2, [r3, #4]
 354              		.loc 1 274 18
 355 0054 3B69     		ldr	r3, [r7, #16]
 356 0056 1340     		ands	r3, r3, r2
ARM GAS  C:\Users\ben96\AppData\Local\Temp\ccIzE967.s 			page 12


 357              		.loc 1 274 6
 358 0058 002B     		cmp	r3, #0
 359 005a 05D0     		beq	.L22
 275:Drivers/STM32F1xx_HAL_Driver/Src/stm32f1xx_hal_exti.c ****   {
 276:Drivers/STM32F1xx_HAL_Driver/Src/stm32f1xx_hal_exti.c ****     pExtiConfig->Mode |= EXTI_MODE_EVENT;
 360              		.loc 1 276 23
 361 005c 3B68     		ldr	r3, [r7]
 362 005e 5B68     		ldr	r3, [r3, #4]
 363 0060 43F00202 		orr	r2, r3, #2
 364 0064 3B68     		ldr	r3, [r7]
 365 0066 5A60     		str	r2, [r3, #4]
 366              	.L22:
 277:Drivers/STM32F1xx_HAL_Driver/Src/stm32f1xx_hal_exti.c ****   }
 278:Drivers/STM32F1xx_HAL_Driver/Src/stm32f1xx_hal_exti.c **** 
 279:Drivers/STM32F1xx_HAL_Driver/Src/stm32f1xx_hal_exti.c ****   /* Get default Trigger and GPIOSel configuration */
 280:Drivers/STM32F1xx_HAL_Driver/Src/stm32f1xx_hal_exti.c ****   pExtiConfig->Trigger = EXTI_TRIGGER_NONE;
 367              		.loc 1 280 24
 368 0068 3B68     		ldr	r3, [r7]
 369 006a 0022     		movs	r2, #0
 370 006c 9A60     		str	r2, [r3, #8]
 281:Drivers/STM32F1xx_HAL_Driver/Src/stm32f1xx_hal_exti.c ****   pExtiConfig->GPIOSel = 0x00u;
 371              		.loc 1 281 24
 372 006e 3B68     		ldr	r3, [r7]
 373 0070 0022     		movs	r2, #0
 374 0072 DA60     		str	r2, [r3, #12]
 282:Drivers/STM32F1xx_HAL_Driver/Src/stm32f1xx_hal_exti.c **** 
 283:Drivers/STM32F1xx_HAL_Driver/Src/stm32f1xx_hal_exti.c ****   /* 2] Get trigger for configurable lines : rising */
 284:Drivers/STM32F1xx_HAL_Driver/Src/stm32f1xx_hal_exti.c ****   if ((pExtiConfig->Line & EXTI_CONFIG) != 0x00u)
 375              		.loc 1 284 19
 376 0074 3B68     		ldr	r3, [r7]
 377 0076 1B68     		ldr	r3, [r3]
 378              		.loc 1 284 26
 379 0078 03F00073 		and	r3, r3, #33554432
 380              		.loc 1 284 6
 381 007c 002B     		cmp	r3, #0
 382 007e 2DD0     		beq	.L23
 285:Drivers/STM32F1xx_HAL_Driver/Src/stm32f1xx_hal_exti.c ****   {
 286:Drivers/STM32F1xx_HAL_Driver/Src/stm32f1xx_hal_exti.c ****     /* Check if configuration of selected line is enable */
 287:Drivers/STM32F1xx_HAL_Driver/Src/stm32f1xx_hal_exti.c ****     if ((EXTI->RTSR & maskline) != 0x00u)
 383              		.loc 1 287 14
 384 0080 194B     		ldr	r3, .L26
 385 0082 9A68     		ldr	r2, [r3, #8]
 386              		.loc 1 287 21
 387 0084 3B69     		ldr	r3, [r7, #16]
 388 0086 1340     		ands	r3, r3, r2
 389              		.loc 1 287 8
 390 0088 002B     		cmp	r3, #0
 391 008a 02D0     		beq	.L24
 288:Drivers/STM32F1xx_HAL_Driver/Src/stm32f1xx_hal_exti.c ****     {
 289:Drivers/STM32F1xx_HAL_Driver/Src/stm32f1xx_hal_exti.c ****       pExtiConfig->Trigger = EXTI_TRIGGER_RISING;
 392              		.loc 1 289 28
 393 008c 3B68     		ldr	r3, [r7]
 394 008e 0122     		movs	r2, #1
 395 0090 9A60     		str	r2, [r3, #8]
 396              	.L24:
 290:Drivers/STM32F1xx_HAL_Driver/Src/stm32f1xx_hal_exti.c ****     }
 291:Drivers/STM32F1xx_HAL_Driver/Src/stm32f1xx_hal_exti.c **** 
ARM GAS  C:\Users\ben96\AppData\Local\Temp\ccIzE967.s 			page 13


 292:Drivers/STM32F1xx_HAL_Driver/Src/stm32f1xx_hal_exti.c ****     /* Get falling configuration */
 293:Drivers/STM32F1xx_HAL_Driver/Src/stm32f1xx_hal_exti.c ****     /* Check if configuration of selected line is enable */
 294:Drivers/STM32F1xx_HAL_Driver/Src/stm32f1xx_hal_exti.c ****     if ((EXTI->FTSR & maskline) != 0x00u)
 397              		.loc 1 294 14
 398 0092 154B     		ldr	r3, .L26
 399 0094 DA68     		ldr	r2, [r3, #12]
 400              		.loc 1 294 21
 401 0096 3B69     		ldr	r3, [r7, #16]
 402 0098 1340     		ands	r3, r3, r2
 403              		.loc 1 294 8
 404 009a 002B     		cmp	r3, #0
 405 009c 05D0     		beq	.L25
 295:Drivers/STM32F1xx_HAL_Driver/Src/stm32f1xx_hal_exti.c ****     {
 296:Drivers/STM32F1xx_HAL_Driver/Src/stm32f1xx_hal_exti.c ****       pExtiConfig->Trigger |= EXTI_TRIGGER_FALLING;
 406              		.loc 1 296 28
 407 009e 3B68     		ldr	r3, [r7]
 408 00a0 9B68     		ldr	r3, [r3, #8]
 409 00a2 43F00202 		orr	r2, r3, #2
 410 00a6 3B68     		ldr	r3, [r7]
 411 00a8 9A60     		str	r2, [r3, #8]
 412              	.L25:
 297:Drivers/STM32F1xx_HAL_Driver/Src/stm32f1xx_hal_exti.c ****     }
 298:Drivers/STM32F1xx_HAL_Driver/Src/stm32f1xx_hal_exti.c **** 
 299:Drivers/STM32F1xx_HAL_Driver/Src/stm32f1xx_hal_exti.c ****     /* Get Gpio port selection for gpio lines */
 300:Drivers/STM32F1xx_HAL_Driver/Src/stm32f1xx_hal_exti.c ****     if ((pExtiConfig->Line & EXTI_GPIO) == EXTI_GPIO)
 413              		.loc 1 300 21
 414 00aa 3B68     		ldr	r3, [r7]
 415 00ac 1B68     		ldr	r3, [r3]
 416              		.loc 1 300 28
 417 00ae 03F0C063 		and	r3, r3, #100663296
 418              		.loc 1 300 8
 419 00b2 B3F1C06F 		cmp	r3, #100663296
 420 00b6 11D1     		bne	.L23
 301:Drivers/STM32F1xx_HAL_Driver/Src/stm32f1xx_hal_exti.c ****     {
 302:Drivers/STM32F1xx_HAL_Driver/Src/stm32f1xx_hal_exti.c ****       assert_param(IS_EXTI_GPIO_PIN(linepos));
 303:Drivers/STM32F1xx_HAL_Driver/Src/stm32f1xx_hal_exti.c **** 
 304:Drivers/STM32F1xx_HAL_Driver/Src/stm32f1xx_hal_exti.c ****       regval = AFIO->EXTICR[linepos >> 2u];
 421              		.loc 1 304 20
 422 00b8 0C4A     		ldr	r2, .L26+4
 423              		.loc 1 304 37
 424 00ba 7B69     		ldr	r3, [r7, #20]
 425 00bc 9B08     		lsrs	r3, r3, #2
 426              		.loc 1 304 14
 427 00be 0233     		adds	r3, r3, #2
 428 00c0 52F82330 		ldr	r3, [r2, r3, lsl #2]
 429 00c4 FB60     		str	r3, [r7, #12]
 305:Drivers/STM32F1xx_HAL_Driver/Src/stm32f1xx_hal_exti.c ****       pExtiConfig->GPIOSel = ((regval << (AFIO_EXTICR1_EXTI1_Pos * (3uL - (linepos & 0x03u)))) >> 2
 430              		.loc 1 305 73
 431 00c6 7B69     		ldr	r3, [r7, #20]
 432 00c8 DB43     		mvns	r3, r3
 433 00ca 03F00303 		and	r3, r3, #3
 434              		.loc 1 305 66
 435 00ce 9B00     		lsls	r3, r3, #2
 436              		.loc 1 305 39
 437 00d0 FA68     		ldr	r2, [r7, #12]
 438 00d2 02FA03F3 		lsl	r3, r2, r3
 439              		.loc 1 305 96
ARM GAS  C:\Users\ben96\AppData\Local\Temp\ccIzE967.s 			page 14


 440 00d6 1A0E     		lsrs	r2, r3, #24
 441              		.loc 1 305 28
 442 00d8 3B68     		ldr	r3, [r7]
 443 00da DA60     		str	r2, [r3, #12]
 444              	.L23:
 306:Drivers/STM32F1xx_HAL_Driver/Src/stm32f1xx_hal_exti.c ****     }
 307:Drivers/STM32F1xx_HAL_Driver/Src/stm32f1xx_hal_exti.c ****   }
 308:Drivers/STM32F1xx_HAL_Driver/Src/stm32f1xx_hal_exti.c **** 
 309:Drivers/STM32F1xx_HAL_Driver/Src/stm32f1xx_hal_exti.c ****   return HAL_OK;
 445              		.loc 1 309 10
 446 00dc 0023     		movs	r3, #0
 447              	.L19:
 310:Drivers/STM32F1xx_HAL_Driver/Src/stm32f1xx_hal_exti.c **** }
 448              		.loc 1 310 1
 449 00de 1846     		mov	r0, r3
 450 00e0 1C37     		adds	r7, r7, #28
 451              	.LCFI9:
 452              		.cfi_def_cfa_offset 4
 453 00e2 BD46     		mov	sp, r7
 454              	.LCFI10:
 455              		.cfi_def_cfa_register 13
 456              		@ sp needed
 457 00e4 80BC     		pop	{r7}
 458              	.LCFI11:
 459              		.cfi_restore 7
 460              		.cfi_def_cfa_offset 0
 461 00e6 7047     		bx	lr
 462              	.L27:
 463              		.align	2
 464              	.L26:
 465 00e8 00040140 		.word	1073808384
 466 00ec 00000140 		.word	1073807360
 467              		.cfi_endproc
 468              	.LFE66:
 470              		.section	.text.HAL_EXTI_ClearConfigLine,"ax",%progbits
 471              		.align	1
 472              		.global	HAL_EXTI_ClearConfigLine
 473              		.syntax unified
 474              		.thumb
 475              		.thumb_func
 476              		.fpu softvfp
 478              	HAL_EXTI_ClearConfigLine:
 479              	.LFB67:
 311:Drivers/STM32F1xx_HAL_Driver/Src/stm32f1xx_hal_exti.c **** 
 312:Drivers/STM32F1xx_HAL_Driver/Src/stm32f1xx_hal_exti.c **** /**
 313:Drivers/STM32F1xx_HAL_Driver/Src/stm32f1xx_hal_exti.c ****   * @brief  Clear whole configuration of a dedicated Exti line.
 314:Drivers/STM32F1xx_HAL_Driver/Src/stm32f1xx_hal_exti.c ****   * @param  hexti Exti handle.
 315:Drivers/STM32F1xx_HAL_Driver/Src/stm32f1xx_hal_exti.c ****   * @retval HAL Status.
 316:Drivers/STM32F1xx_HAL_Driver/Src/stm32f1xx_hal_exti.c ****   */
 317:Drivers/STM32F1xx_HAL_Driver/Src/stm32f1xx_hal_exti.c **** HAL_StatusTypeDef HAL_EXTI_ClearConfigLine(EXTI_HandleTypeDef *hexti)
 318:Drivers/STM32F1xx_HAL_Driver/Src/stm32f1xx_hal_exti.c **** {
 480              		.loc 1 318 1
 481              		.cfi_startproc
 482              		@ args = 0, pretend = 0, frame = 24
 483              		@ frame_needed = 1, uses_anonymous_args = 0
 484              		@ link register save eliminated.
 485 0000 80B4     		push	{r7}
ARM GAS  C:\Users\ben96\AppData\Local\Temp\ccIzE967.s 			page 15


 486              	.LCFI12:
 487              		.cfi_def_cfa_offset 4
 488              		.cfi_offset 7, -4
 489 0002 87B0     		sub	sp, sp, #28
 490              	.LCFI13:
 491              		.cfi_def_cfa_offset 32
 492 0004 00AF     		add	r7, sp, #0
 493              	.LCFI14:
 494              		.cfi_def_cfa_register 7
 495 0006 7860     		str	r0, [r7, #4]
 319:Drivers/STM32F1xx_HAL_Driver/Src/stm32f1xx_hal_exti.c ****   uint32_t regval;
 320:Drivers/STM32F1xx_HAL_Driver/Src/stm32f1xx_hal_exti.c ****   uint32_t linepos;
 321:Drivers/STM32F1xx_HAL_Driver/Src/stm32f1xx_hal_exti.c ****   uint32_t maskline;
 322:Drivers/STM32F1xx_HAL_Driver/Src/stm32f1xx_hal_exti.c **** 
 323:Drivers/STM32F1xx_HAL_Driver/Src/stm32f1xx_hal_exti.c ****   /* Check null pointer */
 324:Drivers/STM32F1xx_HAL_Driver/Src/stm32f1xx_hal_exti.c ****   if (hexti == NULL)
 496              		.loc 1 324 6
 497 0008 7B68     		ldr	r3, [r7, #4]
 498 000a 002B     		cmp	r3, #0
 499 000c 01D1     		bne	.L29
 325:Drivers/STM32F1xx_HAL_Driver/Src/stm32f1xx_hal_exti.c ****   {
 326:Drivers/STM32F1xx_HAL_Driver/Src/stm32f1xx_hal_exti.c ****     return HAL_ERROR;
 500              		.loc 1 326 12
 501 000e 0123     		movs	r3, #1
 502 0010 4CE0     		b	.L30
 503              	.L29:
 327:Drivers/STM32F1xx_HAL_Driver/Src/stm32f1xx_hal_exti.c ****   }
 328:Drivers/STM32F1xx_HAL_Driver/Src/stm32f1xx_hal_exti.c **** 
 329:Drivers/STM32F1xx_HAL_Driver/Src/stm32f1xx_hal_exti.c ****   /* Check the parameter */
 330:Drivers/STM32F1xx_HAL_Driver/Src/stm32f1xx_hal_exti.c ****   assert_param(IS_EXTI_LINE(hexti->Line));
 331:Drivers/STM32F1xx_HAL_Driver/Src/stm32f1xx_hal_exti.c **** 
 332:Drivers/STM32F1xx_HAL_Driver/Src/stm32f1xx_hal_exti.c ****   /* compute line mask */
 333:Drivers/STM32F1xx_HAL_Driver/Src/stm32f1xx_hal_exti.c ****   linepos = (hexti->Line & EXTI_PIN_MASK);
 504              		.loc 1 333 19
 505 0012 7B68     		ldr	r3, [r7, #4]
 506 0014 1B68     		ldr	r3, [r3]
 507              		.loc 1 333 11
 508 0016 03F01F03 		and	r3, r3, #31
 509 001a 7B61     		str	r3, [r7, #20]
 334:Drivers/STM32F1xx_HAL_Driver/Src/stm32f1xx_hal_exti.c ****   maskline = (1uL << linepos);
 510              		.loc 1 334 12
 511 001c 0122     		movs	r2, #1
 512 001e 7B69     		ldr	r3, [r7, #20]
 513 0020 02FA03F3 		lsl	r3, r2, r3
 514 0024 3B61     		str	r3, [r7, #16]
 335:Drivers/STM32F1xx_HAL_Driver/Src/stm32f1xx_hal_exti.c **** 
 336:Drivers/STM32F1xx_HAL_Driver/Src/stm32f1xx_hal_exti.c ****   /* 1] Clear interrupt mode */
 337:Drivers/STM32F1xx_HAL_Driver/Src/stm32f1xx_hal_exti.c ****   EXTI->IMR = (EXTI->IMR & ~maskline);
 515              		.loc 1 337 20
 516 0026 244B     		ldr	r3, .L32
 517 0028 1A68     		ldr	r2, [r3]
 518              		.loc 1 337 28
 519 002a 3B69     		ldr	r3, [r7, #16]
 520 002c DB43     		mvns	r3, r3
 521              		.loc 1 337 7
 522 002e 2249     		ldr	r1, .L32
 523              		.loc 1 337 26
ARM GAS  C:\Users\ben96\AppData\Local\Temp\ccIzE967.s 			page 16


 524 0030 1340     		ands	r3, r3, r2
 525              		.loc 1 337 13
 526 0032 0B60     		str	r3, [r1]
 338:Drivers/STM32F1xx_HAL_Driver/Src/stm32f1xx_hal_exti.c **** 
 339:Drivers/STM32F1xx_HAL_Driver/Src/stm32f1xx_hal_exti.c ****   /* 2] Clear event mode */
 340:Drivers/STM32F1xx_HAL_Driver/Src/stm32f1xx_hal_exti.c ****   EXTI->EMR = (EXTI->EMR & ~maskline);
 527              		.loc 1 340 20
 528 0034 204B     		ldr	r3, .L32
 529 0036 5A68     		ldr	r2, [r3, #4]
 530              		.loc 1 340 28
 531 0038 3B69     		ldr	r3, [r7, #16]
 532 003a DB43     		mvns	r3, r3
 533              		.loc 1 340 7
 534 003c 1E49     		ldr	r1, .L32
 535              		.loc 1 340 26
 536 003e 1340     		ands	r3, r3, r2
 537              		.loc 1 340 13
 538 0040 4B60     		str	r3, [r1, #4]
 341:Drivers/STM32F1xx_HAL_Driver/Src/stm32f1xx_hal_exti.c **** 
 342:Drivers/STM32F1xx_HAL_Driver/Src/stm32f1xx_hal_exti.c ****   /* 3] Clear triggers in case of configurable lines */
 343:Drivers/STM32F1xx_HAL_Driver/Src/stm32f1xx_hal_exti.c ****   if ((hexti->Line & EXTI_CONFIG) != 0x00u)
 539              		.loc 1 343 13
 540 0042 7B68     		ldr	r3, [r7, #4]
 541 0044 1B68     		ldr	r3, [r3]
 542              		.loc 1 343 20
 543 0046 03F00073 		and	r3, r3, #33554432
 544              		.loc 1 343 6
 545 004a 002B     		cmp	r3, #0
 546 004c 2DD0     		beq	.L31
 344:Drivers/STM32F1xx_HAL_Driver/Src/stm32f1xx_hal_exti.c ****   {
 345:Drivers/STM32F1xx_HAL_Driver/Src/stm32f1xx_hal_exti.c ****     EXTI->RTSR = (EXTI->RTSR & ~maskline);
 547              		.loc 1 345 23
 548 004e 1A4B     		ldr	r3, .L32
 549 0050 9A68     		ldr	r2, [r3, #8]
 550              		.loc 1 345 32
 551 0052 3B69     		ldr	r3, [r7, #16]
 552 0054 DB43     		mvns	r3, r3
 553              		.loc 1 345 9
 554 0056 1849     		ldr	r1, .L32
 555              		.loc 1 345 30
 556 0058 1340     		ands	r3, r3, r2
 557              		.loc 1 345 16
 558 005a 8B60     		str	r3, [r1, #8]
 346:Drivers/STM32F1xx_HAL_Driver/Src/stm32f1xx_hal_exti.c ****     EXTI->FTSR = (EXTI->FTSR & ~maskline);
 559              		.loc 1 346 23
 560 005c 164B     		ldr	r3, .L32
 561 005e DA68     		ldr	r2, [r3, #12]
 562              		.loc 1 346 32
 563 0060 3B69     		ldr	r3, [r7, #16]
 564 0062 DB43     		mvns	r3, r3
 565              		.loc 1 346 9
 566 0064 1449     		ldr	r1, .L32
 567              		.loc 1 346 30
 568 0066 1340     		ands	r3, r3, r2
 569              		.loc 1 346 16
 570 0068 CB60     		str	r3, [r1, #12]
 347:Drivers/STM32F1xx_HAL_Driver/Src/stm32f1xx_hal_exti.c **** 
ARM GAS  C:\Users\ben96\AppData\Local\Temp\ccIzE967.s 			page 17


 348:Drivers/STM32F1xx_HAL_Driver/Src/stm32f1xx_hal_exti.c ****     /* Get Gpio port selection for gpio lines */
 349:Drivers/STM32F1xx_HAL_Driver/Src/stm32f1xx_hal_exti.c ****     if ((hexti->Line & EXTI_GPIO) == EXTI_GPIO)
 571              		.loc 1 349 15
 572 006a 7B68     		ldr	r3, [r7, #4]
 573 006c 1B68     		ldr	r3, [r3]
 574              		.loc 1 349 22
 575 006e 03F0C063 		and	r3, r3, #100663296
 576              		.loc 1 349 8
 577 0072 B3F1C06F 		cmp	r3, #100663296
 578 0076 18D1     		bne	.L31
 350:Drivers/STM32F1xx_HAL_Driver/Src/stm32f1xx_hal_exti.c ****     {
 351:Drivers/STM32F1xx_HAL_Driver/Src/stm32f1xx_hal_exti.c ****       assert_param(IS_EXTI_GPIO_PIN(linepos));
 352:Drivers/STM32F1xx_HAL_Driver/Src/stm32f1xx_hal_exti.c **** 
 353:Drivers/STM32F1xx_HAL_Driver/Src/stm32f1xx_hal_exti.c ****       regval = AFIO->EXTICR[linepos >> 2u];
 579              		.loc 1 353 20
 580 0078 104A     		ldr	r2, .L32+4
 581              		.loc 1 353 37
 582 007a 7B69     		ldr	r3, [r7, #20]
 583 007c 9B08     		lsrs	r3, r3, #2
 584              		.loc 1 353 14
 585 007e 0233     		adds	r3, r3, #2
 586 0080 52F82330 		ldr	r3, [r2, r3, lsl #2]
 587 0084 FB60     		str	r3, [r7, #12]
 354:Drivers/STM32F1xx_HAL_Driver/Src/stm32f1xx_hal_exti.c ****       regval &= ~(AFIO_EXTICR1_EXTI0 << (AFIO_EXTICR1_EXTI1_Pos * (linepos & 0x03u)));
 588              		.loc 1 354 76
 589 0086 7B69     		ldr	r3, [r7, #20]
 590 0088 03F00303 		and	r3, r3, #3
 591              		.loc 1 354 65
 592 008c 9B00     		lsls	r3, r3, #2
 593              		.loc 1 354 38
 594 008e 0F22     		movs	r2, #15
 595 0090 02FA03F3 		lsl	r3, r2, r3
 596              		.loc 1 354 17
 597 0094 DB43     		mvns	r3, r3
 598              		.loc 1 354 14
 599 0096 FA68     		ldr	r2, [r7, #12]
 600 0098 1340     		ands	r3, r3, r2
 601 009a FB60     		str	r3, [r7, #12]
 355:Drivers/STM32F1xx_HAL_Driver/Src/stm32f1xx_hal_exti.c ****       AFIO->EXTICR[linepos >> 2u] = regval;
 602              		.loc 1 355 11
 603 009c 0749     		ldr	r1, .L32+4
 604              		.loc 1 355 28
 605 009e 7B69     		ldr	r3, [r7, #20]
 606 00a0 9B08     		lsrs	r3, r3, #2
 607              		.loc 1 355 35
 608 00a2 0233     		adds	r3, r3, #2
 609 00a4 FA68     		ldr	r2, [r7, #12]
 610 00a6 41F82320 		str	r2, [r1, r3, lsl #2]
 611              	.L31:
 356:Drivers/STM32F1xx_HAL_Driver/Src/stm32f1xx_hal_exti.c ****     }
 357:Drivers/STM32F1xx_HAL_Driver/Src/stm32f1xx_hal_exti.c ****   }
 358:Drivers/STM32F1xx_HAL_Driver/Src/stm32f1xx_hal_exti.c **** 
 359:Drivers/STM32F1xx_HAL_Driver/Src/stm32f1xx_hal_exti.c ****   return HAL_OK;
 612              		.loc 1 359 10
 613 00aa 0023     		movs	r3, #0
 614              	.L30:
 360:Drivers/STM32F1xx_HAL_Driver/Src/stm32f1xx_hal_exti.c **** }
ARM GAS  C:\Users\ben96\AppData\Local\Temp\ccIzE967.s 			page 18


 615              		.loc 1 360 1
 616 00ac 1846     		mov	r0, r3
 617 00ae 1C37     		adds	r7, r7, #28
 618              	.LCFI15:
 619              		.cfi_def_cfa_offset 4
 620 00b0 BD46     		mov	sp, r7
 621              	.LCFI16:
 622              		.cfi_def_cfa_register 13
 623              		@ sp needed
 624 00b2 80BC     		pop	{r7}
 625              	.LCFI17:
 626              		.cfi_restore 7
 627              		.cfi_def_cfa_offset 0
 628 00b4 7047     		bx	lr
 629              	.L33:
 630 00b6 00BF     		.align	2
 631              	.L32:
 632 00b8 00040140 		.word	1073808384
 633 00bc 00000140 		.word	1073807360
 634              		.cfi_endproc
 635              	.LFE67:
 637              		.section	.text.HAL_EXTI_RegisterCallback,"ax",%progbits
 638              		.align	1
 639              		.global	HAL_EXTI_RegisterCallback
 640              		.syntax unified
 641              		.thumb
 642              		.thumb_func
 643              		.fpu softvfp
 645              	HAL_EXTI_RegisterCallback:
 646              	.LFB68:
 361:Drivers/STM32F1xx_HAL_Driver/Src/stm32f1xx_hal_exti.c **** 
 362:Drivers/STM32F1xx_HAL_Driver/Src/stm32f1xx_hal_exti.c **** /**
 363:Drivers/STM32F1xx_HAL_Driver/Src/stm32f1xx_hal_exti.c ****   * @brief  Register callback for a dedicated Exti line.
 364:Drivers/STM32F1xx_HAL_Driver/Src/stm32f1xx_hal_exti.c ****   * @param  hexti Exti handle.
 365:Drivers/STM32F1xx_HAL_Driver/Src/stm32f1xx_hal_exti.c ****   * @param  CallbackID User callback identifier.
 366:Drivers/STM32F1xx_HAL_Driver/Src/stm32f1xx_hal_exti.c ****   *         This parameter can be one of @arg @ref EXTI_CallbackIDTypeDef values.
 367:Drivers/STM32F1xx_HAL_Driver/Src/stm32f1xx_hal_exti.c ****   * @param  pPendingCbfn function pointer to be stored as callback.
 368:Drivers/STM32F1xx_HAL_Driver/Src/stm32f1xx_hal_exti.c ****   * @retval HAL Status.
 369:Drivers/STM32F1xx_HAL_Driver/Src/stm32f1xx_hal_exti.c ****   */
 370:Drivers/STM32F1xx_HAL_Driver/Src/stm32f1xx_hal_exti.c **** HAL_StatusTypeDef HAL_EXTI_RegisterCallback(EXTI_HandleTypeDef *hexti, EXTI_CallbackIDTypeDef Callb
 371:Drivers/STM32F1xx_HAL_Driver/Src/stm32f1xx_hal_exti.c **** {
 647              		.loc 1 371 1
 648              		.cfi_startproc
 649              		@ args = 0, pretend = 0, frame = 24
 650              		@ frame_needed = 1, uses_anonymous_args = 0
 651              		@ link register save eliminated.
 652 0000 80B4     		push	{r7}
 653              	.LCFI18:
 654              		.cfi_def_cfa_offset 4
 655              		.cfi_offset 7, -4
 656 0002 87B0     		sub	sp, sp, #28
 657              	.LCFI19:
 658              		.cfi_def_cfa_offset 32
 659 0004 00AF     		add	r7, sp, #0
 660              	.LCFI20:
 661              		.cfi_def_cfa_register 7
 662 0006 F860     		str	r0, [r7, #12]
ARM GAS  C:\Users\ben96\AppData\Local\Temp\ccIzE967.s 			page 19


 663 0008 0B46     		mov	r3, r1
 664 000a 7A60     		str	r2, [r7, #4]
 665 000c FB72     		strb	r3, [r7, #11]
 372:Drivers/STM32F1xx_HAL_Driver/Src/stm32f1xx_hal_exti.c ****   HAL_StatusTypeDef status = HAL_OK;
 666              		.loc 1 372 21
 667 000e 0023     		movs	r3, #0
 668 0010 FB75     		strb	r3, [r7, #23]
 373:Drivers/STM32F1xx_HAL_Driver/Src/stm32f1xx_hal_exti.c **** 
 374:Drivers/STM32F1xx_HAL_Driver/Src/stm32f1xx_hal_exti.c ****   switch (CallbackID)
 669              		.loc 1 374 3
 670 0012 FB7A     		ldrb	r3, [r7, #11]	@ zero_extendqisi2
 671 0014 002B     		cmp	r3, #0
 672 0016 03D1     		bne	.L35
 375:Drivers/STM32F1xx_HAL_Driver/Src/stm32f1xx_hal_exti.c ****   {
 376:Drivers/STM32F1xx_HAL_Driver/Src/stm32f1xx_hal_exti.c ****     case  HAL_EXTI_COMMON_CB_ID:
 377:Drivers/STM32F1xx_HAL_Driver/Src/stm32f1xx_hal_exti.c ****       hexti->PendingCallback = pPendingCbfn;
 673              		.loc 1 377 30
 674 0018 FB68     		ldr	r3, [r7, #12]
 675 001a 7A68     		ldr	r2, [r7, #4]
 676 001c 5A60     		str	r2, [r3, #4]
 378:Drivers/STM32F1xx_HAL_Driver/Src/stm32f1xx_hal_exti.c ****       break;
 677              		.loc 1 378 7
 678 001e 02E0     		b	.L36
 679              	.L35:
 379:Drivers/STM32F1xx_HAL_Driver/Src/stm32f1xx_hal_exti.c **** 
 380:Drivers/STM32F1xx_HAL_Driver/Src/stm32f1xx_hal_exti.c ****     default:
 381:Drivers/STM32F1xx_HAL_Driver/Src/stm32f1xx_hal_exti.c ****       status = HAL_ERROR;
 680              		.loc 1 381 14
 681 0020 0123     		movs	r3, #1
 682 0022 FB75     		strb	r3, [r7, #23]
 382:Drivers/STM32F1xx_HAL_Driver/Src/stm32f1xx_hal_exti.c ****       break;
 683              		.loc 1 382 7
 684 0024 00BF     		nop
 685              	.L36:
 383:Drivers/STM32F1xx_HAL_Driver/Src/stm32f1xx_hal_exti.c ****   }
 384:Drivers/STM32F1xx_HAL_Driver/Src/stm32f1xx_hal_exti.c **** 
 385:Drivers/STM32F1xx_HAL_Driver/Src/stm32f1xx_hal_exti.c ****   return status;
 686              		.loc 1 385 10
 687 0026 FB7D     		ldrb	r3, [r7, #23]	@ zero_extendqisi2
 386:Drivers/STM32F1xx_HAL_Driver/Src/stm32f1xx_hal_exti.c **** }
 688              		.loc 1 386 1
 689 0028 1846     		mov	r0, r3
 690 002a 1C37     		adds	r7, r7, #28
 691              	.LCFI21:
 692              		.cfi_def_cfa_offset 4
 693 002c BD46     		mov	sp, r7
 694              	.LCFI22:
 695              		.cfi_def_cfa_register 13
 696              		@ sp needed
 697 002e 80BC     		pop	{r7}
 698              	.LCFI23:
 699              		.cfi_restore 7
 700              		.cfi_def_cfa_offset 0
 701 0030 7047     		bx	lr
 702              		.cfi_endproc
 703              	.LFE68:
 705              		.section	.text.HAL_EXTI_GetHandle,"ax",%progbits
ARM GAS  C:\Users\ben96\AppData\Local\Temp\ccIzE967.s 			page 20


 706              		.align	1
 707              		.global	HAL_EXTI_GetHandle
 708              		.syntax unified
 709              		.thumb
 710              		.thumb_func
 711              		.fpu softvfp
 713              	HAL_EXTI_GetHandle:
 714              	.LFB69:
 387:Drivers/STM32F1xx_HAL_Driver/Src/stm32f1xx_hal_exti.c **** 
 388:Drivers/STM32F1xx_HAL_Driver/Src/stm32f1xx_hal_exti.c **** /**
 389:Drivers/STM32F1xx_HAL_Driver/Src/stm32f1xx_hal_exti.c ****   * @brief  Store line number as handle private field.
 390:Drivers/STM32F1xx_HAL_Driver/Src/stm32f1xx_hal_exti.c ****   * @param  hexti Exti handle.
 391:Drivers/STM32F1xx_HAL_Driver/Src/stm32f1xx_hal_exti.c ****   * @param  ExtiLine Exti line number.
 392:Drivers/STM32F1xx_HAL_Driver/Src/stm32f1xx_hal_exti.c ****   *         This parameter can be from 0 to @ref EXTI_LINE_NB.
 393:Drivers/STM32F1xx_HAL_Driver/Src/stm32f1xx_hal_exti.c ****   * @retval HAL Status.
 394:Drivers/STM32F1xx_HAL_Driver/Src/stm32f1xx_hal_exti.c ****   */
 395:Drivers/STM32F1xx_HAL_Driver/Src/stm32f1xx_hal_exti.c **** HAL_StatusTypeDef HAL_EXTI_GetHandle(EXTI_HandleTypeDef *hexti, uint32_t ExtiLine)
 396:Drivers/STM32F1xx_HAL_Driver/Src/stm32f1xx_hal_exti.c **** {
 715              		.loc 1 396 1
 716              		.cfi_startproc
 717              		@ args = 0, pretend = 0, frame = 8
 718              		@ frame_needed = 1, uses_anonymous_args = 0
 719              		@ link register save eliminated.
 720 0000 80B4     		push	{r7}
 721              	.LCFI24:
 722              		.cfi_def_cfa_offset 4
 723              		.cfi_offset 7, -4
 724 0002 83B0     		sub	sp, sp, #12
 725              	.LCFI25:
 726              		.cfi_def_cfa_offset 16
 727 0004 00AF     		add	r7, sp, #0
 728              	.LCFI26:
 729              		.cfi_def_cfa_register 7
 730 0006 7860     		str	r0, [r7, #4]
 731 0008 3960     		str	r1, [r7]
 397:Drivers/STM32F1xx_HAL_Driver/Src/stm32f1xx_hal_exti.c ****   /* Check the parameters */
 398:Drivers/STM32F1xx_HAL_Driver/Src/stm32f1xx_hal_exti.c ****   assert_param(IS_EXTI_LINE(ExtiLine));
 399:Drivers/STM32F1xx_HAL_Driver/Src/stm32f1xx_hal_exti.c **** 
 400:Drivers/STM32F1xx_HAL_Driver/Src/stm32f1xx_hal_exti.c ****   /* Check null pointer */
 401:Drivers/STM32F1xx_HAL_Driver/Src/stm32f1xx_hal_exti.c ****   if (hexti == NULL)
 732              		.loc 1 401 6
 733 000a 7B68     		ldr	r3, [r7, #4]
 734 000c 002B     		cmp	r3, #0
 735 000e 01D1     		bne	.L39
 402:Drivers/STM32F1xx_HAL_Driver/Src/stm32f1xx_hal_exti.c ****   {
 403:Drivers/STM32F1xx_HAL_Driver/Src/stm32f1xx_hal_exti.c ****     return HAL_ERROR;
 736              		.loc 1 403 12
 737 0010 0123     		movs	r3, #1
 738 0012 03E0     		b	.L40
 739              	.L39:
 404:Drivers/STM32F1xx_HAL_Driver/Src/stm32f1xx_hal_exti.c ****   }
 405:Drivers/STM32F1xx_HAL_Driver/Src/stm32f1xx_hal_exti.c ****   else
 406:Drivers/STM32F1xx_HAL_Driver/Src/stm32f1xx_hal_exti.c ****   {
 407:Drivers/STM32F1xx_HAL_Driver/Src/stm32f1xx_hal_exti.c ****     /* Store line number as handle private field */
 408:Drivers/STM32F1xx_HAL_Driver/Src/stm32f1xx_hal_exti.c ****     hexti->Line = ExtiLine;
 740              		.loc 1 408 17
 741 0014 7B68     		ldr	r3, [r7, #4]
ARM GAS  C:\Users\ben96\AppData\Local\Temp\ccIzE967.s 			page 21


 742 0016 3A68     		ldr	r2, [r7]
 743 0018 1A60     		str	r2, [r3]
 409:Drivers/STM32F1xx_HAL_Driver/Src/stm32f1xx_hal_exti.c **** 
 410:Drivers/STM32F1xx_HAL_Driver/Src/stm32f1xx_hal_exti.c ****     return HAL_OK;
 744              		.loc 1 410 12
 745 001a 0023     		movs	r3, #0
 746              	.L40:
 411:Drivers/STM32F1xx_HAL_Driver/Src/stm32f1xx_hal_exti.c ****   }
 412:Drivers/STM32F1xx_HAL_Driver/Src/stm32f1xx_hal_exti.c **** }
 747              		.loc 1 412 1
 748 001c 1846     		mov	r0, r3
 749 001e 0C37     		adds	r7, r7, #12
 750              	.LCFI27:
 751              		.cfi_def_cfa_offset 4
 752 0020 BD46     		mov	sp, r7
 753              	.LCFI28:
 754              		.cfi_def_cfa_register 13
 755              		@ sp needed
 756 0022 80BC     		pop	{r7}
 757              	.LCFI29:
 758              		.cfi_restore 7
 759              		.cfi_def_cfa_offset 0
 760 0024 7047     		bx	lr
 761              		.cfi_endproc
 762              	.LFE69:
 764              		.section	.text.HAL_EXTI_IRQHandler,"ax",%progbits
 765              		.align	1
 766              		.global	HAL_EXTI_IRQHandler
 767              		.syntax unified
 768              		.thumb
 769              		.thumb_func
 770              		.fpu softvfp
 772              	HAL_EXTI_IRQHandler:
 773              	.LFB70:
 413:Drivers/STM32F1xx_HAL_Driver/Src/stm32f1xx_hal_exti.c **** 
 414:Drivers/STM32F1xx_HAL_Driver/Src/stm32f1xx_hal_exti.c **** /**
 415:Drivers/STM32F1xx_HAL_Driver/Src/stm32f1xx_hal_exti.c ****   * @}
 416:Drivers/STM32F1xx_HAL_Driver/Src/stm32f1xx_hal_exti.c ****   */
 417:Drivers/STM32F1xx_HAL_Driver/Src/stm32f1xx_hal_exti.c **** 
 418:Drivers/STM32F1xx_HAL_Driver/Src/stm32f1xx_hal_exti.c **** /** @addtogroup EXTI_Exported_Functions_Group2
 419:Drivers/STM32F1xx_HAL_Driver/Src/stm32f1xx_hal_exti.c ****   *  @brief EXTI IO functions.
 420:Drivers/STM32F1xx_HAL_Driver/Src/stm32f1xx_hal_exti.c ****   *
 421:Drivers/STM32F1xx_HAL_Driver/Src/stm32f1xx_hal_exti.c **** @verbatim
 422:Drivers/STM32F1xx_HAL_Driver/Src/stm32f1xx_hal_exti.c ****  ===============================================================================
 423:Drivers/STM32F1xx_HAL_Driver/Src/stm32f1xx_hal_exti.c ****                        ##### IO operation functions #####
 424:Drivers/STM32F1xx_HAL_Driver/Src/stm32f1xx_hal_exti.c ****  ===============================================================================
 425:Drivers/STM32F1xx_HAL_Driver/Src/stm32f1xx_hal_exti.c **** 
 426:Drivers/STM32F1xx_HAL_Driver/Src/stm32f1xx_hal_exti.c **** @endverbatim
 427:Drivers/STM32F1xx_HAL_Driver/Src/stm32f1xx_hal_exti.c ****   * @{
 428:Drivers/STM32F1xx_HAL_Driver/Src/stm32f1xx_hal_exti.c ****   */
 429:Drivers/STM32F1xx_HAL_Driver/Src/stm32f1xx_hal_exti.c **** 
 430:Drivers/STM32F1xx_HAL_Driver/Src/stm32f1xx_hal_exti.c **** /**
 431:Drivers/STM32F1xx_HAL_Driver/Src/stm32f1xx_hal_exti.c ****   * @brief  Handle EXTI interrupt request.
 432:Drivers/STM32F1xx_HAL_Driver/Src/stm32f1xx_hal_exti.c ****   * @param  hexti Exti handle.
 433:Drivers/STM32F1xx_HAL_Driver/Src/stm32f1xx_hal_exti.c ****   * @retval none.
 434:Drivers/STM32F1xx_HAL_Driver/Src/stm32f1xx_hal_exti.c ****   */
 435:Drivers/STM32F1xx_HAL_Driver/Src/stm32f1xx_hal_exti.c **** void HAL_EXTI_IRQHandler(EXTI_HandleTypeDef *hexti)
ARM GAS  C:\Users\ben96\AppData\Local\Temp\ccIzE967.s 			page 22


 436:Drivers/STM32F1xx_HAL_Driver/Src/stm32f1xx_hal_exti.c **** {
 774              		.loc 1 436 1
 775              		.cfi_startproc
 776              		@ args = 0, pretend = 0, frame = 16
 777              		@ frame_needed = 1, uses_anonymous_args = 0
 778 0000 80B5     		push	{r7, lr}
 779              	.LCFI30:
 780              		.cfi_def_cfa_offset 8
 781              		.cfi_offset 7, -8
 782              		.cfi_offset 14, -4
 783 0002 84B0     		sub	sp, sp, #16
 784              	.LCFI31:
 785              		.cfi_def_cfa_offset 24
 786 0004 00AF     		add	r7, sp, #0
 787              	.LCFI32:
 788              		.cfi_def_cfa_register 7
 789 0006 7860     		str	r0, [r7, #4]
 437:Drivers/STM32F1xx_HAL_Driver/Src/stm32f1xx_hal_exti.c ****   uint32_t regval;
 438:Drivers/STM32F1xx_HAL_Driver/Src/stm32f1xx_hal_exti.c ****   uint32_t maskline;
 439:Drivers/STM32F1xx_HAL_Driver/Src/stm32f1xx_hal_exti.c **** 
 440:Drivers/STM32F1xx_HAL_Driver/Src/stm32f1xx_hal_exti.c ****   /* Compute line mask */
 441:Drivers/STM32F1xx_HAL_Driver/Src/stm32f1xx_hal_exti.c ****   maskline = (1uL << (hexti->Line & EXTI_PIN_MASK));
 790              		.loc 1 441 28
 791 0008 7B68     		ldr	r3, [r7, #4]
 792 000a 1B68     		ldr	r3, [r3]
 793              		.loc 1 441 35
 794 000c 03F01F03 		and	r3, r3, #31
 795              		.loc 1 441 12
 796 0010 0122     		movs	r2, #1
 797 0012 02FA03F3 		lsl	r3, r2, r3
 798 0016 FB60     		str	r3, [r7, #12]
 442:Drivers/STM32F1xx_HAL_Driver/Src/stm32f1xx_hal_exti.c **** 
 443:Drivers/STM32F1xx_HAL_Driver/Src/stm32f1xx_hal_exti.c ****   /* Get pending bit  */
 444:Drivers/STM32F1xx_HAL_Driver/Src/stm32f1xx_hal_exti.c ****   regval = (EXTI->PR & maskline);
 799              		.loc 1 444 17
 800 0018 0A4B     		ldr	r3, .L44
 801 001a 5B69     		ldr	r3, [r3, #20]
 802              		.loc 1 444 10
 803 001c FA68     		ldr	r2, [r7, #12]
 804 001e 1340     		ands	r3, r3, r2
 805 0020 BB60     		str	r3, [r7, #8]
 445:Drivers/STM32F1xx_HAL_Driver/Src/stm32f1xx_hal_exti.c ****   if (regval != 0x00u)
 806              		.loc 1 445 6
 807 0022 BB68     		ldr	r3, [r7, #8]
 808 0024 002B     		cmp	r3, #0
 809 0026 09D0     		beq	.L43
 446:Drivers/STM32F1xx_HAL_Driver/Src/stm32f1xx_hal_exti.c ****   {
 447:Drivers/STM32F1xx_HAL_Driver/Src/stm32f1xx_hal_exti.c ****     /* Clear pending bit */
 448:Drivers/STM32F1xx_HAL_Driver/Src/stm32f1xx_hal_exti.c ****     EXTI->PR = maskline;
 810              		.loc 1 448 9
 811 0028 064A     		ldr	r2, .L44
 812              		.loc 1 448 14
 813 002a FB68     		ldr	r3, [r7, #12]
 814 002c 5361     		str	r3, [r2, #20]
 449:Drivers/STM32F1xx_HAL_Driver/Src/stm32f1xx_hal_exti.c **** 
 450:Drivers/STM32F1xx_HAL_Driver/Src/stm32f1xx_hal_exti.c ****     /* Call callback */
 451:Drivers/STM32F1xx_HAL_Driver/Src/stm32f1xx_hal_exti.c ****     if (hexti->PendingCallback != NULL)
ARM GAS  C:\Users\ben96\AppData\Local\Temp\ccIzE967.s 			page 23


 815              		.loc 1 451 14
 816 002e 7B68     		ldr	r3, [r7, #4]
 817 0030 5B68     		ldr	r3, [r3, #4]
 818              		.loc 1 451 8
 819 0032 002B     		cmp	r3, #0
 820 0034 02D0     		beq	.L43
 452:Drivers/STM32F1xx_HAL_Driver/Src/stm32f1xx_hal_exti.c ****     {
 453:Drivers/STM32F1xx_HAL_Driver/Src/stm32f1xx_hal_exti.c ****       hexti->PendingCallback();
 821              		.loc 1 453 12
 822 0036 7B68     		ldr	r3, [r7, #4]
 823 0038 5B68     		ldr	r3, [r3, #4]
 824              		.loc 1 453 7
 825 003a 9847     		blx	r3
 826              	.LVL0:
 827              	.L43:
 454:Drivers/STM32F1xx_HAL_Driver/Src/stm32f1xx_hal_exti.c ****     }
 455:Drivers/STM32F1xx_HAL_Driver/Src/stm32f1xx_hal_exti.c ****   }
 456:Drivers/STM32F1xx_HAL_Driver/Src/stm32f1xx_hal_exti.c **** }
 828              		.loc 1 456 1
 829 003c 00BF     		nop
 830 003e 1037     		adds	r7, r7, #16
 831              	.LCFI33:
 832              		.cfi_def_cfa_offset 8
 833 0040 BD46     		mov	sp, r7
 834              	.LCFI34:
 835              		.cfi_def_cfa_register 13
 836              		@ sp needed
 837 0042 80BD     		pop	{r7, pc}
 838              	.L45:
 839              		.align	2
 840              	.L44:
 841 0044 00040140 		.word	1073808384
 842              		.cfi_endproc
 843              	.LFE70:
 845              		.section	.text.HAL_EXTI_GetPending,"ax",%progbits
 846              		.align	1
 847              		.global	HAL_EXTI_GetPending
 848              		.syntax unified
 849              		.thumb
 850              		.thumb_func
 851              		.fpu softvfp
 853              	HAL_EXTI_GetPending:
 854              	.LFB71:
 457:Drivers/STM32F1xx_HAL_Driver/Src/stm32f1xx_hal_exti.c **** 
 458:Drivers/STM32F1xx_HAL_Driver/Src/stm32f1xx_hal_exti.c **** /**
 459:Drivers/STM32F1xx_HAL_Driver/Src/stm32f1xx_hal_exti.c ****   * @brief  Get interrupt pending bit of a dedicated line.
 460:Drivers/STM32F1xx_HAL_Driver/Src/stm32f1xx_hal_exti.c ****   * @param  hexti Exti handle.
 461:Drivers/STM32F1xx_HAL_Driver/Src/stm32f1xx_hal_exti.c ****   * @param  Edge Specify which pending edge as to be checked.
 462:Drivers/STM32F1xx_HAL_Driver/Src/stm32f1xx_hal_exti.c ****   *         This parameter can be one of the following values:
 463:Drivers/STM32F1xx_HAL_Driver/Src/stm32f1xx_hal_exti.c ****   *           @arg @ref EXTI_TRIGGER_RISING_FALLING
 464:Drivers/STM32F1xx_HAL_Driver/Src/stm32f1xx_hal_exti.c ****   *         This parameter is kept for compatibility with other series.
 465:Drivers/STM32F1xx_HAL_Driver/Src/stm32f1xx_hal_exti.c ****   * @retval 1 if interrupt is pending else 0.
 466:Drivers/STM32F1xx_HAL_Driver/Src/stm32f1xx_hal_exti.c ****   */
 467:Drivers/STM32F1xx_HAL_Driver/Src/stm32f1xx_hal_exti.c **** uint32_t HAL_EXTI_GetPending(EXTI_HandleTypeDef *hexti, uint32_t Edge)
 468:Drivers/STM32F1xx_HAL_Driver/Src/stm32f1xx_hal_exti.c **** {
 855              		.loc 1 468 1
 856              		.cfi_startproc
ARM GAS  C:\Users\ben96\AppData\Local\Temp\ccIzE967.s 			page 24


 857              		@ args = 0, pretend = 0, frame = 24
 858              		@ frame_needed = 1, uses_anonymous_args = 0
 859              		@ link register save eliminated.
 860 0000 80B4     		push	{r7}
 861              	.LCFI35:
 862              		.cfi_def_cfa_offset 4
 863              		.cfi_offset 7, -4
 864 0002 87B0     		sub	sp, sp, #28
 865              	.LCFI36:
 866              		.cfi_def_cfa_offset 32
 867 0004 00AF     		add	r7, sp, #0
 868              	.LCFI37:
 869              		.cfi_def_cfa_register 7
 870 0006 7860     		str	r0, [r7, #4]
 871 0008 3960     		str	r1, [r7]
 469:Drivers/STM32F1xx_HAL_Driver/Src/stm32f1xx_hal_exti.c ****   uint32_t regval;
 470:Drivers/STM32F1xx_HAL_Driver/Src/stm32f1xx_hal_exti.c ****   uint32_t maskline;
 471:Drivers/STM32F1xx_HAL_Driver/Src/stm32f1xx_hal_exti.c ****   uint32_t linepos;
 472:Drivers/STM32F1xx_HAL_Driver/Src/stm32f1xx_hal_exti.c **** 
 473:Drivers/STM32F1xx_HAL_Driver/Src/stm32f1xx_hal_exti.c ****   /* Check parameters */
 474:Drivers/STM32F1xx_HAL_Driver/Src/stm32f1xx_hal_exti.c ****   assert_param(IS_EXTI_LINE(hexti->Line));
 475:Drivers/STM32F1xx_HAL_Driver/Src/stm32f1xx_hal_exti.c ****   assert_param(IS_EXTI_CONFIG_LINE(hexti->Line));
 476:Drivers/STM32F1xx_HAL_Driver/Src/stm32f1xx_hal_exti.c ****   assert_param(IS_EXTI_PENDING_EDGE(Edge));
 477:Drivers/STM32F1xx_HAL_Driver/Src/stm32f1xx_hal_exti.c **** 
 478:Drivers/STM32F1xx_HAL_Driver/Src/stm32f1xx_hal_exti.c ****   /* Prevent unused argument compilation warning */
 479:Drivers/STM32F1xx_HAL_Driver/Src/stm32f1xx_hal_exti.c ****   UNUSED(Edge);
 480:Drivers/STM32F1xx_HAL_Driver/Src/stm32f1xx_hal_exti.c **** 
 481:Drivers/STM32F1xx_HAL_Driver/Src/stm32f1xx_hal_exti.c ****   /* Compute line mask */
 482:Drivers/STM32F1xx_HAL_Driver/Src/stm32f1xx_hal_exti.c ****   linepos = (hexti->Line & EXTI_PIN_MASK);
 872              		.loc 1 482 19
 873 000a 7B68     		ldr	r3, [r7, #4]
 874 000c 1B68     		ldr	r3, [r3]
 875              		.loc 1 482 11
 876 000e 03F01F03 		and	r3, r3, #31
 877 0012 7B61     		str	r3, [r7, #20]
 483:Drivers/STM32F1xx_HAL_Driver/Src/stm32f1xx_hal_exti.c ****   maskline = (1uL << linepos);
 878              		.loc 1 483 12
 879 0014 0122     		movs	r2, #1
 880 0016 7B69     		ldr	r3, [r7, #20]
 881 0018 02FA03F3 		lsl	r3, r2, r3
 882 001c 3B61     		str	r3, [r7, #16]
 484:Drivers/STM32F1xx_HAL_Driver/Src/stm32f1xx_hal_exti.c **** 
 485:Drivers/STM32F1xx_HAL_Driver/Src/stm32f1xx_hal_exti.c ****   /* return 1 if bit is set else 0 */
 486:Drivers/STM32F1xx_HAL_Driver/Src/stm32f1xx_hal_exti.c ****   regval = ((EXTI->PR & maskline) >> linepos);
 883              		.loc 1 486 18
 884 001e 074B     		ldr	r3, .L48
 885 0020 5A69     		ldr	r2, [r3, #20]
 886              		.loc 1 486 23
 887 0022 3B69     		ldr	r3, [r7, #16]
 888 0024 1A40     		ands	r2, r2, r3
 889              		.loc 1 486 10
 890 0026 7B69     		ldr	r3, [r7, #20]
 891 0028 22FA03F3 		lsr	r3, r2, r3
 892 002c FB60     		str	r3, [r7, #12]
 487:Drivers/STM32F1xx_HAL_Driver/Src/stm32f1xx_hal_exti.c ****   return regval;
 893              		.loc 1 487 10
 894 002e FB68     		ldr	r3, [r7, #12]
ARM GAS  C:\Users\ben96\AppData\Local\Temp\ccIzE967.s 			page 25


 488:Drivers/STM32F1xx_HAL_Driver/Src/stm32f1xx_hal_exti.c **** }
 895              		.loc 1 488 1
 896 0030 1846     		mov	r0, r3
 897 0032 1C37     		adds	r7, r7, #28
 898              	.LCFI38:
 899              		.cfi_def_cfa_offset 4
 900 0034 BD46     		mov	sp, r7
 901              	.LCFI39:
 902              		.cfi_def_cfa_register 13
 903              		@ sp needed
 904 0036 80BC     		pop	{r7}
 905              	.LCFI40:
 906              		.cfi_restore 7
 907              		.cfi_def_cfa_offset 0
 908 0038 7047     		bx	lr
 909              	.L49:
 910 003a 00BF     		.align	2
 911              	.L48:
 912 003c 00040140 		.word	1073808384
 913              		.cfi_endproc
 914              	.LFE71:
 916              		.section	.text.HAL_EXTI_ClearPending,"ax",%progbits
 917              		.align	1
 918              		.global	HAL_EXTI_ClearPending
 919              		.syntax unified
 920              		.thumb
 921              		.thumb_func
 922              		.fpu softvfp
 924              	HAL_EXTI_ClearPending:
 925              	.LFB72:
 489:Drivers/STM32F1xx_HAL_Driver/Src/stm32f1xx_hal_exti.c **** 
 490:Drivers/STM32F1xx_HAL_Driver/Src/stm32f1xx_hal_exti.c **** /**
 491:Drivers/STM32F1xx_HAL_Driver/Src/stm32f1xx_hal_exti.c ****   * @brief  Clear interrupt pending bit of a dedicated line.
 492:Drivers/STM32F1xx_HAL_Driver/Src/stm32f1xx_hal_exti.c ****   * @param  hexti Exti handle.
 493:Drivers/STM32F1xx_HAL_Driver/Src/stm32f1xx_hal_exti.c ****   * @param  Edge Specify which pending edge as to be clear.
 494:Drivers/STM32F1xx_HAL_Driver/Src/stm32f1xx_hal_exti.c ****   *         This parameter can be one of the following values:
 495:Drivers/STM32F1xx_HAL_Driver/Src/stm32f1xx_hal_exti.c ****   *           @arg @ref EXTI_TRIGGER_RISING_FALLING
 496:Drivers/STM32F1xx_HAL_Driver/Src/stm32f1xx_hal_exti.c ****   *         This parameter is kept for compatibility with other series.
 497:Drivers/STM32F1xx_HAL_Driver/Src/stm32f1xx_hal_exti.c ****   * @retval None.
 498:Drivers/STM32F1xx_HAL_Driver/Src/stm32f1xx_hal_exti.c ****   */
 499:Drivers/STM32F1xx_HAL_Driver/Src/stm32f1xx_hal_exti.c **** void HAL_EXTI_ClearPending(EXTI_HandleTypeDef *hexti, uint32_t Edge)
 500:Drivers/STM32F1xx_HAL_Driver/Src/stm32f1xx_hal_exti.c **** {
 926              		.loc 1 500 1
 927              		.cfi_startproc
 928              		@ args = 0, pretend = 0, frame = 16
 929              		@ frame_needed = 1, uses_anonymous_args = 0
 930              		@ link register save eliminated.
 931 0000 80B4     		push	{r7}
 932              	.LCFI41:
 933              		.cfi_def_cfa_offset 4
 934              		.cfi_offset 7, -4
 935 0002 85B0     		sub	sp, sp, #20
 936              	.LCFI42:
 937              		.cfi_def_cfa_offset 24
 938 0004 00AF     		add	r7, sp, #0
 939              	.LCFI43:
 940              		.cfi_def_cfa_register 7
ARM GAS  C:\Users\ben96\AppData\Local\Temp\ccIzE967.s 			page 26


 941 0006 7860     		str	r0, [r7, #4]
 942 0008 3960     		str	r1, [r7]
 501:Drivers/STM32F1xx_HAL_Driver/Src/stm32f1xx_hal_exti.c ****   uint32_t maskline;
 502:Drivers/STM32F1xx_HAL_Driver/Src/stm32f1xx_hal_exti.c **** 
 503:Drivers/STM32F1xx_HAL_Driver/Src/stm32f1xx_hal_exti.c ****   /* Check parameters */
 504:Drivers/STM32F1xx_HAL_Driver/Src/stm32f1xx_hal_exti.c ****   assert_param(IS_EXTI_LINE(hexti->Line));
 505:Drivers/STM32F1xx_HAL_Driver/Src/stm32f1xx_hal_exti.c ****   assert_param(IS_EXTI_CONFIG_LINE(hexti->Line));
 506:Drivers/STM32F1xx_HAL_Driver/Src/stm32f1xx_hal_exti.c ****   assert_param(IS_EXTI_PENDING_EDGE(Edge));
 507:Drivers/STM32F1xx_HAL_Driver/Src/stm32f1xx_hal_exti.c **** 
 508:Drivers/STM32F1xx_HAL_Driver/Src/stm32f1xx_hal_exti.c ****   /* Prevent unused argument compilation warning */
 509:Drivers/STM32F1xx_HAL_Driver/Src/stm32f1xx_hal_exti.c ****   UNUSED(Edge);
 510:Drivers/STM32F1xx_HAL_Driver/Src/stm32f1xx_hal_exti.c **** 
 511:Drivers/STM32F1xx_HAL_Driver/Src/stm32f1xx_hal_exti.c ****   /* Compute line mask */
 512:Drivers/STM32F1xx_HAL_Driver/Src/stm32f1xx_hal_exti.c ****   maskline = (1uL << (hexti->Line & EXTI_PIN_MASK));
 943              		.loc 1 512 28
 944 000a 7B68     		ldr	r3, [r7, #4]
 945 000c 1B68     		ldr	r3, [r3]
 946              		.loc 1 512 35
 947 000e 03F01F03 		and	r3, r3, #31
 948              		.loc 1 512 12
 949 0012 0122     		movs	r2, #1
 950 0014 02FA03F3 		lsl	r3, r2, r3
 951 0018 FB60     		str	r3, [r7, #12]
 513:Drivers/STM32F1xx_HAL_Driver/Src/stm32f1xx_hal_exti.c **** 
 514:Drivers/STM32F1xx_HAL_Driver/Src/stm32f1xx_hal_exti.c ****   /* Clear Pending bit */
 515:Drivers/STM32F1xx_HAL_Driver/Src/stm32f1xx_hal_exti.c ****   EXTI->PR =  maskline;
 952              		.loc 1 515 7
 953 001a 044A     		ldr	r2, .L51
 954              		.loc 1 515 12
 955 001c FB68     		ldr	r3, [r7, #12]
 956 001e 5361     		str	r3, [r2, #20]
 516:Drivers/STM32F1xx_HAL_Driver/Src/stm32f1xx_hal_exti.c **** }
 957              		.loc 1 516 1
 958 0020 00BF     		nop
 959 0022 1437     		adds	r7, r7, #20
 960              	.LCFI44:
 961              		.cfi_def_cfa_offset 4
 962 0024 BD46     		mov	sp, r7
 963              	.LCFI45:
 964              		.cfi_def_cfa_register 13
 965              		@ sp needed
 966 0026 80BC     		pop	{r7}
 967              	.LCFI46:
 968              		.cfi_restore 7
 969              		.cfi_def_cfa_offset 0
 970 0028 7047     		bx	lr
 971              	.L52:
 972 002a 00BF     		.align	2
 973              	.L51:
 974 002c 00040140 		.word	1073808384
 975              		.cfi_endproc
 976              	.LFE72:
 978              		.section	.text.HAL_EXTI_GenerateSWI,"ax",%progbits
 979              		.align	1
 980              		.global	HAL_EXTI_GenerateSWI
 981              		.syntax unified
 982              		.thumb
ARM GAS  C:\Users\ben96\AppData\Local\Temp\ccIzE967.s 			page 27


 983              		.thumb_func
 984              		.fpu softvfp
 986              	HAL_EXTI_GenerateSWI:
 987              	.LFB73:
 517:Drivers/STM32F1xx_HAL_Driver/Src/stm32f1xx_hal_exti.c **** 
 518:Drivers/STM32F1xx_HAL_Driver/Src/stm32f1xx_hal_exti.c **** /**
 519:Drivers/STM32F1xx_HAL_Driver/Src/stm32f1xx_hal_exti.c ****   * @brief  Generate a software interrupt for a dedicated line.
 520:Drivers/STM32F1xx_HAL_Driver/Src/stm32f1xx_hal_exti.c ****   * @param  hexti Exti handle.
 521:Drivers/STM32F1xx_HAL_Driver/Src/stm32f1xx_hal_exti.c ****   * @retval None.
 522:Drivers/STM32F1xx_HAL_Driver/Src/stm32f1xx_hal_exti.c ****   */
 523:Drivers/STM32F1xx_HAL_Driver/Src/stm32f1xx_hal_exti.c **** void HAL_EXTI_GenerateSWI(EXTI_HandleTypeDef *hexti)
 524:Drivers/STM32F1xx_HAL_Driver/Src/stm32f1xx_hal_exti.c **** {
 988              		.loc 1 524 1
 989              		.cfi_startproc
 990              		@ args = 0, pretend = 0, frame = 16
 991              		@ frame_needed = 1, uses_anonymous_args = 0
 992              		@ link register save eliminated.
 993 0000 80B4     		push	{r7}
 994              	.LCFI47:
 995              		.cfi_def_cfa_offset 4
 996              		.cfi_offset 7, -4
 997 0002 85B0     		sub	sp, sp, #20
 998              	.LCFI48:
 999              		.cfi_def_cfa_offset 24
 1000 0004 00AF     		add	r7, sp, #0
 1001              	.LCFI49:
 1002              		.cfi_def_cfa_register 7
 1003 0006 7860     		str	r0, [r7, #4]
 525:Drivers/STM32F1xx_HAL_Driver/Src/stm32f1xx_hal_exti.c ****   uint32_t maskline;
 526:Drivers/STM32F1xx_HAL_Driver/Src/stm32f1xx_hal_exti.c **** 
 527:Drivers/STM32F1xx_HAL_Driver/Src/stm32f1xx_hal_exti.c ****   /* Check parameters */
 528:Drivers/STM32F1xx_HAL_Driver/Src/stm32f1xx_hal_exti.c ****   assert_param(IS_EXTI_LINE(hexti->Line));
 529:Drivers/STM32F1xx_HAL_Driver/Src/stm32f1xx_hal_exti.c ****   assert_param(IS_EXTI_CONFIG_LINE(hexti->Line));
 530:Drivers/STM32F1xx_HAL_Driver/Src/stm32f1xx_hal_exti.c **** 
 531:Drivers/STM32F1xx_HAL_Driver/Src/stm32f1xx_hal_exti.c ****   /* Compute line mask */
 532:Drivers/STM32F1xx_HAL_Driver/Src/stm32f1xx_hal_exti.c ****   maskline = (1uL << (hexti->Line & EXTI_PIN_MASK));
 1004              		.loc 1 532 28
 1005 0008 7B68     		ldr	r3, [r7, #4]
 1006 000a 1B68     		ldr	r3, [r3]
 1007              		.loc 1 532 35
 1008 000c 03F01F03 		and	r3, r3, #31
 1009              		.loc 1 532 12
 1010 0010 0122     		movs	r2, #1
 1011 0012 02FA03F3 		lsl	r3, r2, r3
 1012 0016 FB60     		str	r3, [r7, #12]
 533:Drivers/STM32F1xx_HAL_Driver/Src/stm32f1xx_hal_exti.c **** 
 534:Drivers/STM32F1xx_HAL_Driver/Src/stm32f1xx_hal_exti.c ****   /* Generate Software interrupt */
 535:Drivers/STM32F1xx_HAL_Driver/Src/stm32f1xx_hal_exti.c ****   EXTI->SWIER = maskline;
 1013              		.loc 1 535 7
 1014 0018 034A     		ldr	r2, .L54
 1015              		.loc 1 535 15
 1016 001a FB68     		ldr	r3, [r7, #12]
 1017 001c 1361     		str	r3, [r2, #16]
 536:Drivers/STM32F1xx_HAL_Driver/Src/stm32f1xx_hal_exti.c **** }
 1018              		.loc 1 536 1
 1019 001e 00BF     		nop
 1020 0020 1437     		adds	r7, r7, #20
ARM GAS  C:\Users\ben96\AppData\Local\Temp\ccIzE967.s 			page 28


 1021              	.LCFI50:
 1022              		.cfi_def_cfa_offset 4
 1023 0022 BD46     		mov	sp, r7
 1024              	.LCFI51:
 1025              		.cfi_def_cfa_register 13
 1026              		@ sp needed
 1027 0024 80BC     		pop	{r7}
 1028              	.LCFI52:
 1029              		.cfi_restore 7
 1030              		.cfi_def_cfa_offset 0
 1031 0026 7047     		bx	lr
 1032              	.L55:
 1033              		.align	2
 1034              	.L54:
 1035 0028 00040140 		.word	1073808384
 1036              		.cfi_endproc
 1037              	.LFE73:
 1039              		.text
 1040              	.Letext0:
 1041              		.file 2 "c:\\program files (x86)\\gnu arm embedded toolchain\\10 2021.07\\arm-none-eabi\\include\\
 1042              		.file 3 "c:\\program files (x86)\\gnu arm embedded toolchain\\10 2021.07\\arm-none-eabi\\include\\
 1043              		.file 4 "Drivers/CMSIS/Device/ST/STM32F1xx/Include/stm32f103xb.h"
 1044              		.file 5 "Drivers/STM32F1xx_HAL_Driver/Inc/stm32f1xx_hal_def.h"
 1045              		.file 6 "Drivers/STM32F1xx_HAL_Driver/Inc/stm32f1xx_hal_exti.h"
ARM GAS  C:\Users\ben96\AppData\Local\Temp\ccIzE967.s 			page 29

